(lp0
S'Target cell[Suz] 34-43\n'
p1
aS'1\t20.02.2016 0:08:19\t2.32485322896\n'
p2
aS'2\t20.02.2016 0:18:19\t2.32485322896\n'
p3
aS'3\t20.02.2016 0:28:19\t2.32485322896\n'
p4
aS'4\t20.02.2016 0:38:19\t2.32485322896\n'
p5
aS'5\t20.02.2016 0:48:19\t2.32485322896\n'
p6
aS'6\t20.02.2016 0:58:19\t2.32485322896\n'
p7
aS'7\t20.02.2016 1:08:19\t2.32485322896\n'
p8
aS'8\t20.02.2016 1:18:19\t2.32485322896\n'
p9
aS'9\t20.02.2016 1:28:19\t2.32485322896\n'
p10
aS'10\t20.02.2016 1:38:19\t2.32485322896\n'
p11
aS'11\t20.02.2016 1:48:19\t2.32485322896\n'
p12
aS'12\t20.02.2016 1:58:19\t2.32485322896\n'
p13
aS'13\t20.02.2016 2:08:19\t2.32485322896\n'
p14
aS'14\t20.02.2016 2:18:19\t2.32485322896\n'
p15
aS'15\t20.02.2016 2:28:37\t2.32485322896\n'
p16
aS'16\t20.02.2016 2:38:19\t2.32485322896\n'
p17
aS'17\t20.02.2016 2:48:19\t2.32485322896\n'
p18
aS'18\t20.02.2016 2:58:19\t2.32485322896\n'
p19
aS'19\t20.02.2016 3:08:19\t2.32485322896\n'
p20
aS'20\t20.02.2016 3:18:19\t2.32485322896\n'
p21
aS'21\t20.02.2016 3:28:19\t2.32485322896\n'
p22
aS'22\t20.02.2016 3:38:19\t2.32485322896\n'
p23
aS'23\t20.02.2016 3:48:19\t2.32485322896\n'
p24
aS'24\t20.02.2016 3:58:19\t2.32485322896\n'
p25
aS'25\t20.02.2016 4:08:19\t2.32485322896\n'
p26
aS'26\t20.02.2016 4:18:19\t2.32485322896\n'
p27
aS'27\t20.02.2016 4:28:19\t2.32485322896\n'
p28
aS'28\t20.02.2016 4:38:19\t2.32485322896\n'
p29
aS'29\t20.02.2016 4:48:19\t2.32485322896\n'
p30
aS'30\t20.02.2016 4:58:19\t2.32485322896\n'
p31
aS'31\t20.02.2016 5:08:19\t2.32485322896\n'
p32
aS'32\t20.02.2016 5:18:18\t2.32485322896\n'
p33
aS'33\t20.02.2016 5:28:19\t2.32485322896\n'
p34
aS'34\t20.02.2016 5:38:18\t2.32485322896\n'
p35
aS'35\t20.02.2016 5:48:18\t2.32485322896\n'
p36
aS'36\t20.02.2016 5:58:18\t2.32485322896\n'
p37
aS'37\t20.02.2016 6:08:18\t2.32485322896\n'
p38
aS'38\t20.02.2016 6:18:18\t2.32485322896\n'
p39
aS'39\t20.02.2016 6:28:18\t2.32485322896\n'
p40
aS'40\t20.02.2016 6:38:18\t2.32485322896\n'
p41
aS'41\t20.02.2016 6:48:18\t2.32485322896\n'
p42
aS'42\t20.02.2016 6:58:18\t2.32485322896\n'
p43
aS'43\t20.02.2016 7:08:18\t2.32485322896\n'
p44
aS'44\t20.02.2016 7:18:18\t2.32485322896\n'
p45
aS'45\t20.02.2016 7:28:18\t2.32485322896\n'
p46
aS'46\t20.02.2016 7:38:18\t2.32485322896\n'
p47
aS'47\t20.02.2016 7:48:19\t2.32485322896\n'
p48
aS'48\t20.02.2016 7:58:18\t2.32485322896\n'
p49
aS'49\t20.02.2016 8:08:18\t2.32485322896\n'
p50
aS'50\t20.02.2016 8:18:18\t2.32485322896\n'
p51
aS'51\t20.02.2016 8:28:18\t2.32485322896\n'
p52
aS'52\t20.02.2016 8:38:19\t2.32485322896\n'
p53
aS'53\t20.02.2016 8:48:19\t2.32485322896\n'
p54
aS'54\t20.02.2016 8:58:18\t2.32485322896\n'
p55
aS'55\t20.02.2016 9:08:18\t2.32485322896\n'
p56
aS'56\t20.02.2016 9:18:18\t2.32485322896\n'
p57
aS'57\t20.02.2016 9:28:19\t2.32485322896\n'
p58
aS'58\t20.02.2016 9:38:18\t2.32485322896\n'
p59
aS'59\t20.02.2016 9:48:19\t2.32485322896\n'
p60
aS'60\t20.02.2016 9:58:18\t2.32485322896\n'
p61
aS'61\t20.02.2016 10:08:19\t2.32485322896\n'
p62
aS'62\t20.02.2016 10:18:18\t2.32485322896\n'
p63
aS'63\t20.02.2016 10:28:18\t2.32485322896\n'
p64
aS'64\t20.02.2016 10:38:18\t2.32485322896\n'
p65
aS'65\t20.02.2016 10:48:18\t2.32485322896\n'
p66
aS'66\t20.02.2016 10:58:18\t2.32485322896\n'
p67
aS'67\t20.02.2016 11:08:18\t2.32485322896\n'
p68
aS'68\t20.02.2016 11:18:18\t2.32485322896\n'
p69
aS'69\t20.02.2016 11:28:18\t2.32485322896\n'
p70
aS'70\t20.02.2016 11:38:17\t2.32485322896\n'
p71
aS'71\t20.02.2016 11:48:18\t2.32485322896\n'
p72
aS'72\t20.02.2016 11:58:18\t2.32485322896\n'
p73
aS'73\t20.02.2016 12:08:38\t2.32485322896\n'
p74
aS'74\t20.02.2016 12:18:18\t2.32485322896\n'
p75
aS'75\t20.02.2016 12:28:17\t2.32485322896\n'
p76
aS'76\t20.02.2016 12:38:18\t2.32485322896\n'
p77
aS'77\t20.02.2016 12:48:18\t2.32485322896\n'
p78
aS'78\t20.02.2016 12:58:18\t2.32485322896\n'
p79
aS'79\t20.02.2016 13:08:18\t2.32485322896\n'
p80
aS'80\t20.02.2016 13:18:18\t2.32485322896\n'
p81
aS'81\t20.02.2016 13:28:17\t2.32485322896\n'
p82
aS'82\t20.02.2016 13:38:18\t2.32485322896\n'
p83
aS'83\t20.02.2016 13:48:17\t2.32485322896\n'
p84
aS'84\t20.02.2016 13:58:17\t2.32485322896\n'
p85
aS'85\t20.02.2016 14:08:17\t2.32485322896\n'
p86
aS'86\t20.02.2016 14:18:18\t2.32485322896\n'
p87
aS'87\t20.02.2016 14:28:17\t2.32485322896\n'
p88
aS'88\t20.02.2016 14:38:17\t2.32485322896\n'
p89
aS'89\t20.02.2016 14:48:17\t2.32485322896\n'
p90
aS'90\t20.02.2016 14:58:17\t2.32485322896\n'
p91
aS'91\t20.02.2016 15:08:17\t2.32485322896\n'
p92
aS'92\t20.02.2016 15:18:17\t2.32485322896\n'
p93
aS'93\t20.02.2016 15:28:17\t2.32485322896\n'
p94
aS'94\t20.02.2016 15:38:17\t2.32485322896\n'
p95
aS'95\t20.02.2016 15:48:17\t2.32485322896\n'
p96
aS'96\t20.02.2016 15:58:17\t2.32485322896\n'
p97
aS'97\t20.02.2016 16:08:17\t2.32485322896\n'
p98
aS'98\t20.02.2016 16:18:17\t2.32485322896\n'
p99
aS'99\t20.02.2016 16:28:17\t2.32485322896\n'
p100
aS'100\t20.02.2016 16:38:17\t2.32485322896\n'
p101
aS'101\t20.02.2016 16:48:17\t2.32485322896\n'
p102
aS'102\t20.02.2016 16:58:17\t2.32485322896\n'
p103
aS'103\t20.02.2016 17:08:17\t2.32485322896\n'
p104
aS'104\t20.02.2016 17:18:17\t2.32485322896\n'
p105
aS'105\t20.02.2016 17:28:17\t2.39530332681\n'
p106
aS'106\t20.02.2016 17:38:17\t2.39530332681\n'
p107
aS'107\t20.02.2016 17:48:16\t2.39530332681\n'
p108
aS'108\t20.02.2016 17:58:16\t2.39530332681\n'
p109
aS'109\t20.02.2016 18:08:17\t2.39530332681\n'
p110
aS'110\t20.02.2016 18:18:16\t2.39530332681\n'
p111
aS'111\t20.02.2016 18:28:17\t2.39530332681\n'
p112
aS'112\t20.02.2016 18:38:17\t2.39530332681\n'
p113
aS'113\t20.02.2016 18:48:16\t2.39530332681\n'
p114
aS'114\t20.02.2016 18:58:16\t2.39530332681\n'
p115
aS'115\t20.02.2016 19:08:16\t2.39530332681\n'
p116
aS'116\t20.02.2016 19:18:16\t2.39530332681\n'
p117
aS'117\t20.02.2016 19:28:16\t2.39530332681\n'
p118
aS'118\t20.02.2016 19:38:16\t2.39530332681\n'
p119
aS'119\t20.02.2016 19:48:16\t2.39530332681\n'
p120
aS'120\t20.02.2016 19:58:16\t2.39530332681\n'
p121
aS'121\t20.02.2016 20:08:16\t2.39530332681\n'
p122
aS'122\t20.02.2016 20:18:16\t2.39530332681\n'
p123
aS'123\t20.02.2016 20:28:16\t2.39530332681\n'
p124
aS'124\t20.02.2016 20:38:16\t2.39530332681\n'
p125
aS'125\t20.02.2016 20:48:16\t2.39530332681\n'
p126
aS'126\t20.02.2016 20:58:16\t2.39530332681\n'
p127
aS'127\t20.02.2016 21:08:16\t2.39530332681\n'
p128
aS'128\t20.02.2016 21:18:16\t2.39530332681\n'
p129
aS'129\t20.02.2016 21:28:16\t2.39530332681\n'
p130
aS'130\t20.02.2016 21:38:16\t2.39530332681\n'
p131
aS'131\t20.02.2016 21:48:16\t2.39530332681\n'
p132
aS'132\t20.02.2016 21:58:16\t2.39530332681\n'
p133
aS'133\t20.02.2016 22:08:16\t2.39530332681\n'
p134
aS'134\t20.02.2016 22:18:16\t2.39530332681\n'
p135
aS'135\t20.02.2016 22:28:16\t2.39530332681\n'
p136
aS'136\t20.02.2016 22:38:16\t2.39530332681\n'
p137
aS'137\t20.02.2016 22:48:16\t2.39530332681\n'
p138
aS'138\t20.02.2016 22:58:16\t2.39530332681\n'
p139
aS'139\t20.02.2016 23:08:16\t2.39530332681\n'
p140
aS'140\t20.02.2016 23:18:16\t2.39530332681\n'
p141
aS'141\t20.02.2016 23:28:16\t2.39530332681\n'
p142
aS'142\t20.02.2016 23:38:16\t2.39530332681\n'
p143
aS'143\t20.02.2016 23:48:16\t2.39530332681\n'
p144
aS'144\t20.02.2016 23:58:16\t2.39530332681\n'
p145
aS'145\t21.02.2016 0:08:16\t2.41291585127\n'
p146
aS'146\t21.02.2016 0:18:16\t2.41291585127\n'
p147
aS'147\t21.02.2016 0:28:16\t2.41291585127\n'
p148
aS'148\t21.02.2016 0:38:16\t2.41291585127\n'
p149
aS'149\t21.02.2016 0:48:16\t2.41291585127\n'
p150
aS'150\t21.02.2016 0:58:15\t2.41291585127\n'
p151
aS'151\t21.02.2016 1:08:15\t2.41291585127\n'
p152
aS'152\t21.02.2016 1:18:15\t2.41291585127\n'
p153
aS'153\t21.02.2016 1:28:15\t2.41291585127\n'
p154
aS'154\t21.02.2016 1:38:15\t2.41291585127\n'
p155
aS'155\t21.02.2016 1:48:15\t2.41291585127\n'
p156
aS'156\t21.02.2016 1:58:15\t2.41291585127\n'
p157
aS'157\t21.02.2016 2:08:15\t2.41291585127\n'
p158
aS'158\t21.02.2016 2:18:15\t2.41291585127\n'
p159
aS'159\t21.02.2016 2:28:33\t2.41291585127\n'
p160
aS'160\t21.02.2016 2:38:15\t2.41291585127\n'
p161
aS'161\t21.02.2016 2:48:15\t2.41291585127\n'
p162
aS'162\t21.02.2016 2:58:15\t2.41291585127\n'
p163
aS'163\t21.02.2016 3:08:15\t2.41291585127\n'
p164
aS'164\t21.02.2016 3:18:15\t2.41291585127\n'
p165
aS'165\t21.02.2016 3:28:15\t2.41291585127\n'
p166
aS'166\t21.02.2016 3:38:15\t2.41291585127\n'
p167
aS'167\t21.02.2016 3:48:15\t2.41291585127\n'
p168
aS'168\t21.02.2016 3:58:15\t2.41291585127\n'
p169
aS'169\t21.02.2016 4:08:15\t2.41291585127\n'
p170
aS'170\t21.02.2016 4:18:15\t2.41291585127\n'
p171
aS'171\t21.02.2016 4:28:15\t2.41291585127\n'
p172
aS'172\t21.02.2016 4:38:15\t2.41291585127\n'
p173
aS'173\t21.02.2016 4:48:15\t2.41291585127\n'
p174
aS'174\t21.02.2016 4:58:15\t2.36007827789\n'
p175
aS'175\t21.02.2016 5:08:15\t2.34246575342\n'
p176
aS'176\t21.02.2016 5:18:14\t2.3072407045\n'
p177
aS'177\t21.02.2016 5:28:15\t2.3072407045\n'
p178
aS'178\t21.02.2016 5:38:15\t2.27201565558\n'
p179
aS'179\t21.02.2016 5:48:14\t2.27201565558\n'
p180
aS'180\t21.02.2016 5:58:15\t2.27201565558\n'
p181
aS'181\t21.02.2016 6:08:15\t2.27201565558\n'
p182
aS'182\t21.02.2016 6:18:15\t2.27201565558\n'
p183
aS'183\t21.02.2016 6:28:15\t2.27201565558\n'
p184
aS'184\t21.02.2016 6:38:15\t2.27201565558\n'
p185
aS'185\t21.02.2016 6:48:15\t2.27201565558\n'
p186
aS'186\t21.02.2016 6:58:15\t2.27201565558\n'
p187
aS'187\t21.02.2016 7:08:15\t2.27201565558\n'
p188
aS'188\t21.02.2016 7:18:33\t2.27201565558\n'
p189
aS'189\t21.02.2016 7:28:15\t2.27201565558\n'
p190
aS'190\t21.02.2016 7:38:14\t2.27201565558\n'
p191
aS'191\t21.02.2016 7:48:14\t2.27201565558\n'
p192
aS'192\t21.02.2016 7:58:15\t2.27201565558\n'
p193
aS'193\t21.02.2016 8:08:14\t2.27201565558\n'
p194
aS'194\t21.02.2016 8:18:14\t2.27201565558\n'
p195
aS'195\t21.02.2016 8:28:14\t2.27201565558\n'
p196
aS'196\t21.02.2016 8:38:15\t2.27201565558\n'
p197
aS'197\t21.02.2016 8:48:14\t2.27201565558\n'
p198
aS'198\t21.02.2016 8:58:14\t2.27201565558\n'
p199
aS'199\t21.02.2016 9:08:15\t2.27201565558\n'
p200
aS'200\t21.02.2016 9:18:15\t2.27201565558\n'
p201
aS'201\t21.02.2016 9:28:14\t2.27201565558\n'
p202
aS'202\t21.02.2016 9:38:14\t2.27201565558\n'
p203
aS'203\t21.02.2016 9:48:15\t2.27201565558\n'
p204
aS'204\t21.02.2016 9:58:14\t2.27201565558\n'
p205
aS'205\t21.02.2016 10:08:14\t2.27201565558\n'
p206
aS'206\t21.02.2016 10:18:14\t2.27201565558\n'
p207
aS'207\t21.02.2016 10:28:14\t2.27201565558\n'
p208
aS'208\t21.02.2016 10:38:14\t2.27201565558\n'
p209
aS'209\t21.02.2016 10:48:14\t2.27201565558\n'
p210
aS'210\t21.02.2016 10:58:14\t2.27201565558\n'
p211
aS'211\t21.02.2016 11:08:14\t2.27201565558\n'
p212
aS'212\t21.02.2016 11:18:14\t2.27201565558\n'
p213
aS'213\t21.02.2016 11:28:14\t2.27201565558\n'
p214
aS'214\t21.02.2016 11:38:14\t2.27201565558\n'
p215
aS'215\t21.02.2016 11:48:14\t2.27201565558\n'
p216
aS'216\t21.02.2016 11:58:14\t2.27201565558\n'
p217
aS'217\t21.02.2016 12:08:36\t2.27201565558\n'
p218
aS'218\t21.02.2016 12:18:14\t2.27201565558\n'
p219
aS'219\t21.02.2016 12:28:14\t2.27201565558\n'
p220
aS'220\t21.02.2016 12:38:14\t2.27201565558\n'
p221
aS'221\t21.02.2016 12:48:14\t2.27201565558\n'
p222
aS'222\t21.02.2016 12:58:14\t2.27201565558\n'
p223
aS'223\t21.02.2016 13:08:14\t2.27201565558\n'
p224
aS'224\t21.02.2016 13:18:14\t2.27201565558\n'
p225
aS'225\t21.02.2016 13:28:14\t2.27201565558\n'
p226
aS'226\t21.02.2016 13:38:14\t2.27201565558\n'
p227
aS'227\t21.02.2016 13:48:14\t2.27201565558\n'
p228
aS'228\t21.02.2016 13:58:13\t2.27201565558\n'
p229
aS'229\t21.02.2016 14:08:13\t2.27201565558\n'
p230
aS'230\t21.02.2016 14:18:13\t2.27201565558\n'
p231
aS'231\t21.02.2016 14:28:13\t2.27201565558\n'
p232
aS'232\t21.02.2016 14:38:13\t2.27201565558\n'
p233
aS'233\t21.02.2016 14:48:13\t2.27201565558\n'
p234
aS'234\t21.02.2016 14:58:13\t2.27201565558\n'
p235
aS'235\t21.02.2016 15:08:13\t2.27201565558\n'
p236
aS'236\t21.02.2016 15:18:14\t2.27201565558\n'
p237
aS'237\t21.02.2016 15:28:13\t2.27201565558\n'
p238
aS'238\t21.02.2016 15:38:14\t2.27201565558\n'
p239
aS'239\t21.02.2016 15:48:13\t2.27201565558\n'
p240
aS'240\t21.02.2016 15:58:14\t2.27201565558\n'
p241
aS'241\t21.02.2016 16:08:14\t2.27201565558\n'
p242
aS'242\t21.02.2016 16:18:13\t2.27201565558\n'
p243
aS'243\t21.02.2016 16:28:13\t2.27201565558\n'
p244
aS'244\t21.02.2016 16:38:13\t2.27201565558\n'
p245
aS'245\t21.02.2016 16:48:13\t2.27201565558\n'
p246
aS'246\t21.02.2016 16:58:13\t2.27201565558\n'
p247
aS'247\t21.02.2016 17:08:13\t2.27201565558\n'
p248
aS'248\t21.02.2016 17:18:13\t2.27201565558\n'
p249
aS'249\t21.02.2016 17:28:13\t2.27201565558\n'
p250
aS'250\t21.02.2016 17:38:13\t2.27201565558\n'
p251
aS'251\t21.02.2016 17:48:13\t2.27201565558\n'
p252
aS'252\t21.02.2016 17:58:13\t2.27201565558\n'
p253
aS'253\t21.02.2016 18:08:13\t2.27201565558\n'
p254
aS'254\t21.02.2016 18:18:13\t2.27201565558\n'
p255
aS'255\t21.02.2016 18:28:14\t2.27201565558\n'
p256
aS'256\t21.02.2016 18:38:13\t2.27201565558\n'
p257
aS'257\t21.02.2016 18:48:13\t2.27201565558\n'
p258
aS'258\t21.02.2016 18:58:13\t2.27201565558\n'
p259
aS'259\t21.02.2016 19:08:13\t2.27201565558\n'
p260
aS'260\t21.02.2016 19:18:13\t2.27201565558\n'
p261
aS'261\t21.02.2016 19:28:13\t2.27201565558\n'
p262
aS'262\t21.02.2016 19:38:13\t2.27201565558\n'
p263
aS'263\t21.02.2016 19:48:13\t2.27201565558\n'
p264
aS'264\t21.02.2016 19:58:13\t2.27201565558\n'
p265
aS'265\t21.02.2016 20:08:12\t2.27201565558\n'
p266
aS'266\t21.02.2016 20:18:13\t2.27201565558\n'
p267
aS'267\t21.02.2016 20:28:13\t2.27201565558\n'
p268
aS'268\t21.02.2016 20:38:13\t2.27201565558\n'
p269
aS'269\t21.02.2016 20:48:12\t2.27201565558\n'
p270
aS'270\t21.02.2016 20:58:12\t2.27201565558\n'
p271
aS'271\t21.02.2016 21:08:12\t2.27201565558\n'
p272
aS'272\t21.02.2016 21:18:13\t2.27201565558\n'
p273
aS'273\t21.02.2016 21:28:12\t2.27201565558\n'
p274
aS'274\t21.02.2016 21:38:12\t2.27201565558\n'
p275
aS'275\t21.02.2016 21:48:33\t2.27201565558\n'
p276
aS'276\t21.02.2016 21:58:12\t2.27201565558\n'
p277
aS'277\t21.02.2016 22:08:12\t2.27201565558\n'
p278
aS'278\t21.02.2016 22:18:12\t2.27201565558\n'
p279
aS'279\t21.02.2016 22:28:12\t2.27201565558\n'
p280
aS'280\t21.02.2016 22:38:12\t2.27201565558\n'
p281
aS'281\t21.02.2016 22:48:12\t2.27201565558\n'
p282
aS'282\t21.02.2016 22:58:12\t2.27201565558\n'
p283
aS'283\t21.02.2016 23:08:12\t2.27201565558\n'
p284
aS'284\t21.02.2016 23:18:12\t2.27201565558\n'
p285
aS'285\t21.02.2016 23:28:12\t2.27201565558\n'
p286
aS'286\t21.02.2016 23:38:12\t2.27201565558\n'
p287
aS'287\t21.02.2016 23:58:12\t2.27201565558\n'
p288
aS'288\t22.02.2016 0:08:12\t2.27201565558\n'
p289
aS'289\t22.02.2016 0:18:12\t2.27201565558\n'
p290
aS'290\t22.02.2016 0:28:12\t2.27201565558\n'
p291
aS'291\t22.02.2016 0:38:12\t2.27201565558\n'
p292
aS'292\t22.02.2016 0:48:12\t2.27201565558\n'
p293
aS'293\t22.02.2016 0:58:12\t2.27201565558\n'
p294
aS'294\t22.02.2016 1:08:12\t2.27201565558\n'
p295
aS'295\t22.02.2016 1:18:12\t2.27201565558\n'
p296
aS'296\t22.02.2016 1:28:12\t2.25440313112\n'
p297
aS'297\t22.02.2016 1:38:12\t2.25440313112\n'
p298
aS'298\t22.02.2016 1:48:12\t2.25440313112\n'
p299
aS'299\t22.02.2016 1:58:12\t2.25440313112\n'
p300
aS'300\t22.02.2016 2:08:12\t2.25440313112\n'
p301
aS'301\t22.02.2016 2:18:12\t2.25440313112\n'
p302
aS'302\t22.02.2016 2:28:12\t2.25440313112\n'
p303
aS'303\t22.02.2016 2:38:12\t2.25440313112\n'
p304
aS'304\t22.02.2016 2:48:11\t2.25440313112\n'
p305
aS'305\t22.02.2016 2:58:11\t2.25440313112\n'
p306
aS'306\t22.02.2016 3:08:12\t2.25440313112\n'
p307
aS'307\t22.02.2016 3:18:11\t2.25440313112\n'
p308
aS'308\t22.02.2016 3:28:12\t2.25440313112\n'
p309
aS'309\t22.02.2016 3:38:11\t2.25440313112\n'
p310
aS'310\t22.02.2016 3:48:11\t2.25440313112\n'
p311
aS'311\t22.02.2016 3:58:11\t2.25440313112\n'
p312
aS'312\t22.02.2016 4:08:11\t2.25440313112\n'
p313
aS'313\t22.02.2016 4:18:11\t2.25440313112\n'
p314
aS'314\t22.02.2016 4:28:11\t2.25440313112\n'
p315
aS'315\t22.02.2016 4:38:11\t2.25440313112\n'
p316
aS'316\t22.02.2016 4:48:11\t2.25440313112\n'
p317
aS'317\t22.02.2016 4:58:11\t2.25440313112\n'
p318
aS'318\t22.02.2016 5:08:11\t2.25440313112\n'
p319
aS'319\t22.02.2016 5:18:11\t2.25440313112\n'
p320
aS'320\t22.02.2016 5:28:11\t2.25440313112\n'
p321
aS'321\t22.02.2016 5:38:11\t2.25440313112\n'
p322
aS'322\t22.02.2016 5:48:11\t2.25440313112\n'
p323
aS'323\t22.02.2016 5:58:11\t2.25440313112\n'
p324
aS'324\t22.02.2016 6:08:11\t2.25440313112\n'
p325
aS'325\t22.02.2016 6:18:11\t2.25440313112\n'
p326
aS'326\t22.02.2016 6:28:11\t2.25440313112\n'
p327
aS'327\t22.02.2016 6:38:11\t2.25440313112\n'
p328
aS'328\t22.02.2016 6:48:11\t2.25440313112\n'
p329
aS'329\t22.02.2016 6:58:11\t2.25440313112\n'
p330
aS'330\t22.02.2016 7:08:11\t2.25440313112\n'
p331
aS'331\t22.02.2016 7:18:29\t2.25440313112\n'
p332
aS'332\t22.02.2016 7:28:11\t2.25440313112\n'
p333
aS'333\t22.02.2016 7:38:11\t2.25440313112\n'
p334
aS'334\t22.02.2016 7:48:11\t2.25440313112\n'
p335
aS'335\t22.02.2016 7:58:11\t2.25440313112\n'
p336
aS'336\t22.02.2016 8:08:10\t2.25440313112\n'
p337
aS'337\t22.02.2016 8:18:11\t2.25440313112\n'
p338
aS'338\t22.02.2016 8:28:10\t2.25440313112\n'
p339
aS'339\t22.02.2016 8:38:10\t2.25440313112\n'
p340
aS'340\t22.02.2016 8:48:11\t2.25440313112\n'
p341
aS'341\t22.02.2016 8:58:10\t2.20156555773\n'
p342
aS'342\t22.02.2016 9:08:10\t2.20156555773\n'
p343
aS'343\t22.02.2016 9:18:11\t2.20156555773\n'
p344
aS'344\t22.02.2016 9:28:11\t2.20156555773\n'
p345
aS'345\t22.02.2016 9:38:11\t2.20156555773\n'
p346
aS'346\t22.02.2016 9:48:11\t2.20156555773\n'
p347
aS'347\t22.02.2016 9:58:10\t2.20156555773\n'
p348
aS'348\t22.02.2016 10:08:11\t2.20156555773\n'
p349
aS'349\t22.02.2016 10:18:11\t2.20156555773\n'
p350
aS'350\t22.02.2016 10:28:11\t2.20156555773\n'
p351
aS'351\t22.02.2016 10:38:10\t2.20156555773\n'
p352
aS'352\t22.02.2016 10:48:10\t2.20156555773\n'
p353
aS'353\t22.02.2016 10:58:10\t2.20156555773\n'
p354
aS'354\t22.02.2016 11:08:10\t2.20156555773\n'
p355
aS'355\t22.02.2016 11:18:10\t2.20156555773\n'
p356
aS'356\t22.02.2016 11:28:10\t2.20156555773\n'
p357
aS'357\t22.02.2016 11:38:10\t2.20156555773\n'
p358
aS'358\t22.02.2016 11:48:10\t2.20156555773\n'
p359
aS'359\t22.02.2016 11:58:10\t2.20156555773\n'
p360
aS'360\t22.02.2016 12:08:29\t2.20156555773\n'
p361
aS'361\t22.02.2016 12:18:10\t2.16634050881\n'
p362
aS'362\t22.02.2016 12:28:10\t2.16634050881\n'
p363
aS'363\t22.02.2016 12:38:10\t2.14872798434\n'
p364
aS'364\t22.02.2016 12:48:10\t2.11350293542\n'
p365
aS'365\t22.02.2016 12:58:10\t2.11350293542\n'
p366
aS'366\t22.02.2016 13:08:10\t2.11350293542\n'
p367
aS'367\t22.02.2016 13:18:10\t2.11350293542\n'
p368
aS'368\t22.02.2016 13:28:10\t2.11350293542\n'
p369
aS'369\t22.02.2016 13:38:10\t2.11350293542\n'
p370
aS'370\t22.02.2016 13:48:10\t2.11350293542\n'
p371
aS'371\t22.02.2016 13:58:10\t2.11350293542\n'
p372
aS'372\t22.02.2016 14:08:10\t2.11350293542\n'
p373
aS'373\t22.02.2016 14:18:10\t2.09589041096\n'
p374
aS'374\t22.02.2016 14:28:10\t2.09589041096\n'
p375
aS'375\t22.02.2016 14:38:10\t2.09589041096\n'
p376
aS'376\t22.02.2016 14:48:10\t2.09589041096\n'
p377
aS'377\t22.02.2016 14:58:10\t2.09589041096\n'
p378
aS'378\t22.02.2016 15:08:10\t2.09589041096\n'
p379
aS'379\t22.02.2016 15:18:09\t2.09589041096\n'
p380
aS'380\t22.02.2016 15:28:10\t2.09589041096\n'
p381
aS'381\t22.02.2016 15:38:10\t2.09589041096\n'
p382
aS'382\t22.02.2016 15:48:10\t2.09589041096\n'
p383
aS'383\t22.02.2016 15:58:09\t2.09589041096\n'
p384
aS'384\t22.02.2016 16:08:09\t2.09589041096\n'
p385
aS'385\t22.02.2016 16:18:09\t2.09589041096\n'
p386
aS'386\t22.02.2016 16:28:09\t2.09589041096\n'
p387
aS'387\t22.02.2016 16:38:09\t2.09589041096\n'
p388
aS'388\t22.02.2016 16:48:09\t2.18395303327\n'
p389
aS'389\t22.02.2016 16:58:28\t2.18395303327\n'
p390
aS'390\t22.02.2016 17:08:09\t2.18395303327\n'
p391
aS'391\t22.02.2016 17:18:09\t2.18395303327\n'
p392
aS'392\t22.02.2016 17:28:09\t2.18395303327\n'
p393
aS'393\t22.02.2016 17:38:09\t2.18395303327\n'
p394
aS'394\t22.02.2016 17:48:09\t2.18395303327\n'
p395
aS'395\t22.02.2016 17:58:09\t2.18395303327\n'
p396
aS'396\t22.02.2016 18:08:09\t2.18395303327\n'
p397
aS'397\t22.02.2016 18:18:09\t2.18395303327\n'
p398
aS'398\t22.02.2016 18:28:09\t2.18395303327\n'
p399
aS'399\t22.02.2016 18:38:09\t2.18395303327\n'
p400
aS'400\t22.02.2016 18:48:09\t2.18395303327\n'
p401
aS'401\t22.02.2016 18:58:09\t2.18395303327\n'
p402
aS'402\t22.02.2016 19:08:09\t2.18395303327\n'
p403
aS'403\t22.02.2016 19:18:09\t2.18395303327\n'
p404
aS'404\t22.02.2016 19:28:09\t2.18395303327\n'
p405
aS'405\t22.02.2016 19:38:09\t2.18395303327\n'
p406
aS'406\t22.02.2016 19:48:09\t2.18395303327\n'
p407
aS'407\t22.02.2016 19:58:09\t2.18395303327\n'
p408
aS'408\t22.02.2016 20:08:09\t2.18395303327\n'
p409
aS'409\t22.02.2016 20:18:09\t2.18395303327\n'
p410
aS'410\t22.02.2016 20:28:09\t2.18395303327\n'
p411
aS'411\t22.02.2016 20:38:09\t2.18395303327\n'
p412
aS'412\t22.02.2016 20:48:09\t2.18395303327\n'
p413
aS'413\t22.02.2016 20:58:09\t2.18395303327\n'
p414
aS'414\t22.02.2016 21:08:09\t2.18395303327\n'
p415
aS'415\t22.02.2016 21:18:09\t2.18395303327\n'
p416
aS'416\t22.02.2016 21:28:09\t2.18395303327\n'
p417
aS'417\t22.02.2016 21:38:09\t2.18395303327\n'
p418
aS'418\t22.02.2016 21:48:25\t2.18395303327\n'
p419
aS'419\t22.02.2016 21:58:09\t2.18395303327\n'
p420
aS'420\t22.02.2016 22:08:08\t2.18395303327\n'
p421
aS'421\t22.02.2016 22:18:09\t2.18395303327\n'
p422
aS'422\t22.02.2016 22:28:08\t2.18395303327\n'
p423
aS'423\t22.02.2016 22:38:08\t2.18395303327\n'
p424
aS'424\t22.02.2016 22:48:08\t2.18395303327\n'
p425
aS'425\t22.02.2016 22:58:08\t2.18395303327\n'
p426
aS'426\t22.02.2016 23:08:08\t2.18395303327\n'
p427
aS'427\t22.02.2016 23:18:08\t2.18395303327\n'
p428
aS'428\t22.02.2016 23:28:08\t2.18395303327\n'
p429
aS'429\t22.02.2016 23:38:08\t2.18395303327\n'
p430
aS'430\t22.02.2016 23:48:08\t2.18395303327\n'
p431
aS'431\t22.02.2016 23:58:08\t2.18395303327\n'
p432
aS'432\t23.02.2016 0:08:08\t2.18395303327\n'
p433
aS'433\t23.02.2016 0:18:08\t2.18395303327\n'
p434
aS'434\t23.02.2016 0:28:08\t2.18395303327\n'
p435
aS'435\t23.02.2016 0:38:08\t2.18395303327\n'
p436
aS'436\t23.02.2016 0:48:08\t2.18395303327\n'
p437
aS'437\t23.02.2016 0:58:08\t2.18395303327\n'
p438
aS'438\t23.02.2016 1:08:08\t2.18395303327\n'
p439
aS'439\t23.02.2016 1:18:08\t2.18395303327\n'
p440
aS'440\t23.02.2016 1:28:08\t2.18395303327\n'
p441
aS'441\t23.02.2016 1:38:08\t2.18395303327\n'
p442
aS'442\t23.02.2016 1:48:08\t2.18395303327\n'
p443
aS'443\t23.02.2016 1:58:08\t2.18395303327\n'
p444
aS'444\t23.02.2016 2:08:08\t2.18395303327\n'
p445
aS'445\t23.02.2016 2:18:08\t2.18395303327\n'
p446
aS'446\t23.02.2016 2:28:27\t2.18395303327\n'
p447
aS'447\t23.02.2016 2:38:08\t2.18395303327\n'
p448
aS'448\t23.02.2016 2:48:08\t2.18395303327\n'
p449
aS'449\t23.02.2016 2:58:08\t2.18395303327\n'
p450
aS'450\t23.02.2016 3:08:08\t2.18395303327\n'
p451
aS'451\t23.02.2016 3:18:08\t2.18395303327\n'
p452
aS'452\t23.02.2016 3:28:08\t2.18395303327\n'
p453
aS'453\t23.02.2016 3:48:08\t2.18395303327\n'
p454
aS'454\t23.02.2016 3:58:08\t2.18395303327\n'
p455
aS'455\t23.02.2016 4:08:08\t2.18395303327\n'
p456
aS'456\t23.02.2016 4:18:08\t2.18395303327\n'
p457
aS'457\t23.02.2016 4:28:08\t2.18395303327\n'
p458
aS'458\t23.02.2016 4:38:08\t2.18395303327\n'
p459
aS'459\t23.02.2016 4:48:08\t2.18395303327\n'
p460
aS'460\t23.02.2016 4:58:08\t2.18395303327\n'
p461
aS'461\t23.02.2016 5:08:07\t2.18395303327\n'
p462
aS'462\t23.02.2016 5:18:07\t2.18395303327\n'
p463
aS'463\t23.02.2016 5:28:08\t2.18395303327\n'
p464
aS'464\t23.02.2016 5:38:07\t2.18395303327\n'
p465
aS'465\t23.02.2016 5:48:07\t2.18395303327\n'
p466
aS'466\t23.02.2016 5:58:08\t2.18395303327\n'
p467
aS'467\t23.02.2016 6:08:07\t2.18395303327\n'
p468
aS'468\t23.02.2016 6:18:07\t2.18395303327\n'
p469
aS'469\t23.02.2016 6:28:07\t2.18395303327\n'
p470
aS'470\t23.02.2016 6:38:07\t2.18395303327\n'
p471
aS'471\t23.02.2016 6:48:07\t2.18395303327\n'
p472
aS'472\t23.02.2016 6:58:07\t2.18395303327\n'
p473
aS'473\t23.02.2016 7:08:07\t2.18395303327\n'
p474
aS'474\t23.02.2016 7:18:29\t2.18395303327\n'
p475
aS'475\t23.02.2016 7:28:07\t2.18395303327\n'
p476
aS'476\t23.02.2016 7:38:07\t2.18395303327\n'
p477
aS'477\t23.02.2016 7:48:07\t2.18395303327\n'
p478
aS'478\t23.02.2016 7:58:07\t2.18395303327\n'
p479
aS'479\t23.02.2016 8:08:07\t2.18395303327\n'
p480
aS'480\t23.02.2016 8:18:07\t2.18395303327\n'
p481
aS'481\t23.02.2016 8:28:07\t2.18395303327\n'
p482
aS'482\t23.02.2016 8:38:07\t2.18395303327\n'
p483
aS'483\t23.02.2016 8:48:07\t2.18395303327\n'
p484
aS'484\t23.02.2016 8:58:07\t2.18395303327\n'
p485
aS'485\t23.02.2016 9:08:07\t2.18395303327\n'
p486
aS'486\t23.02.2016 9:18:07\t2.18395303327\n'
p487
aS'487\t23.02.2016 9:28:07\t2.18395303327\n'
p488
aS'488\t23.02.2016 9:38:07\t2.18395303327\n'
p489
aS'489\t23.02.2016 9:48:07\t2.18395303327\n'
p490
aS'490\t23.02.2016 9:58:07\t2.18395303327\n'
p491
aS'491\t23.02.2016 10:08:07\t2.18395303327\n'
p492
aS'492\t23.02.2016 10:18:07\t2.18395303327\n'
p493
aS'493\t23.02.2016 10:28:06\t2.18395303327\n'
p494
aS'494\t23.02.2016 10:38:06\t2.18395303327\n'
p495
aS'495\t23.02.2016 10:48:07\t2.18395303327\n'
p496
aS'496\t23.02.2016 10:58:06\t2.18395303327\n'
p497
aS'497\t23.02.2016 11:08:06\t2.18395303327\n'
p498
aS'498\t23.02.2016 11:18:06\t2.18395303327\n'
p499
aS'499\t23.02.2016 11:28:06\t2.18395303327\n'
p500
aS'500\t23.02.2016 11:48:06\t2.18395303327\n'
p501
aS'501\t23.02.2016 11:58:06\t2.18395303327\n'
p502
aS'502\t23.02.2016 12:08:26\t2.18395303327\n'
p503
aS'503\t23.02.2016 12:18:06\t2.18395303327\n'
p504
aS'504\t23.02.2016 12:28:06\t2.18395303327\n'
p505
aS'505\t23.02.2016 12:38:06\t2.18395303327\n'
p506
aS'506\t23.02.2016 12:48:06\t2.18395303327\n'
p507
aS'507\t23.02.2016 12:58:06\t2.18395303327\n'
p508
aS'508\t23.02.2016 13:08:06\t2.18395303327\n'
p509
aS'509\t23.02.2016 13:18:06\t2.18395303327\n'
p510
aS'510\t23.02.2016 13:28:06\t2.18395303327\n'
p511
aS'511\t23.02.2016 13:38:06\t2.18395303327\n'
p512
aS'512\t23.02.2016 13:48:06\t2.18395303327\n'
p513
aS'513\t23.02.2016 13:58:06\t2.18395303327\n'
p514
aS'514\t23.02.2016 14:08:06\t2.18395303327\n'
p515
aS'515\t23.02.2016 14:18:06\t2.18395303327\n'
p516
aS'516\t23.02.2016 14:28:06\t2.18395303327\n'
p517
aS'517\t23.02.2016 14:38:06\t2.18395303327\n'
p518
aS'518\t23.02.2016 14:48:06\t2.18395303327\n'
p519
aS'519\t23.02.2016 14:58:06\t2.18395303327\n'
p520
aS'520\t23.02.2016 15:08:06\t2.18395303327\n'
p521
aS'521\t23.02.2016 15:18:06\t2.18395303327\n'
p522
aS'522\t23.02.2016 15:28:06\t2.18395303327\n'
p523
aS'523\t23.02.2016 15:38:06\t2.18395303327\n'
p524
aS'524\t23.02.2016 15:48:06\t2.18395303327\n'
p525
aS'525\t23.02.2016 15:58:06\t2.18395303327\n'
p526
aS'526\t23.02.2016 16:08:06\t2.18395303327\n'
p527
aS'527\t23.02.2016 16:18:06\t2.18395303327\n'
p528
aS'528\t23.02.2016 16:28:06\t2.18395303327\n'
p529
aS'529\t23.02.2016 16:38:06\t2.18395303327\n'
p530
aS'530\t23.02.2016 16:48:06\t2.18395303327\n'
p531
aS'531\t23.02.2016 16:58:23\t2.18395303327\n'
p532
aS'532\t23.02.2016 17:08:05\t2.18395303327\n'
p533
aS'533\t23.02.2016 17:18:06\t2.18395303327\n'
p534
aS'534\t23.02.2016 17:28:05\t2.18395303327\n'
p535
aS'535\t23.02.2016 17:38:06\t2.18395303327\n'
p536
aS'536\t23.02.2016 17:48:05\t2.18395303327\n'
p537
aS'537\t23.02.2016 17:58:05\t2.18395303327\n'
p538
aS'538\t23.02.2016 18:08:05\t2.18395303327\n'
p539
aS'539\t23.02.2016 18:18:05\t2.18395303327\n'
p540
aS'540\t23.02.2016 18:28:05\t2.18395303327\n'
p541
aS'541\t23.02.2016 18:38:05\t2.18395303327\n'
p542
aS'542\t23.02.2016 18:48:05\t2.18395303327\n'
p543
aS'543\t23.02.2016 18:58:05\t2.18395303327\n'
p544
aS'544\t23.02.2016 19:08:05\t2.21917808219\n'
p545
aS'545\t23.02.2016 19:18:05\t2.21917808219\n'
p546
aS'546\t23.02.2016 19:28:05\t2.21917808219\n'
p547
aS'547\t23.02.2016 19:38:05\t2.21917808219\n'
p548
aS'548\t23.02.2016 19:48:05\t2.21917808219\n'
p549
aS'549\t23.02.2016 19:58:05\t2.21917808219\n'
p550
aS'550\t23.02.2016 20:08:05\t2.21917808219\n'
p551
aS'551\t23.02.2016 20:18:05\t2.21917808219\n'
p552
aS'552\t23.02.2016 20:28:05\t2.21917808219\n'
p553
aS'553\t23.02.2016 20:38:05\t2.21917808219\n'
p554
aS'554\t23.02.2016 20:48:05\t2.21917808219\n'
p555
aS'555\t23.02.2016 20:58:05\t2.21917808219\n'
p556
aS'556\t23.02.2016 21:08:05\t2.21917808219\n'
p557
aS'557\t23.02.2016 21:18:05\t2.21917808219\n'
p558
aS'558\t23.02.2016 21:28:05\t2.21917808219\n'
p559
aS'559\t23.02.2016 21:38:05\t2.21917808219\n'
p560
aS'560\t23.02.2016 21:48:26\t2.21917808219\n'
p561
aS'561\t23.02.2016 21:58:05\t2.21917808219\n'
p562
aS'562\t23.02.2016 22:08:05\t2.21917808219\n'
p563
aS'563\t23.02.2016 22:18:05\t2.21917808219\n'
p564
aS'564\t23.02.2016 22:28:05\t2.21917808219\n'
p565
aS'565\t23.02.2016 22:38:05\t2.21917808219\n'
p566
aS'566\t23.02.2016 22:48:05\t2.21917808219\n'
p567
aS'567\t23.02.2016 22:58:04\t2.21917808219\n'
p568
aS'568\t23.02.2016 23:08:05\t2.21917808219\n'
p569
aS'569\t23.02.2016 23:28:04\t2.21917808219\n'
p570
aS'570\t23.02.2016 23:38:05\t2.21917808219\n'
p571
aS'571\t23.02.2016 23:48:05\t2.21917808219\n'
p572
aS'572\t23.02.2016 23:58:04\t2.21917808219\n'
p573
aS'573\t24.02.2016 0:08:05\t2.21917808219\n'
p574
aS'574\t24.02.2016 0:18:04\t2.21917808219\n'
p575
aS'575\t24.02.2016 0:28:04\t2.21917808219\n'
p576
aS'576\t24.02.2016 0:38:04\t2.21917808219\n'
p577
aS'577\t24.02.2016 0:48:04\t2.21917808219\n'
p578
aS'578\t24.02.2016 0:58:04\t2.21917808219\n'
p579
aS'579\t24.02.2016 1:08:04\t2.21917808219\n'
p580
aS'580\t24.02.2016 1:18:04\t2.21917808219\n'
p581
aS'581\t24.02.2016 1:28:04\t2.21917808219\n'
p582
aS'582\t24.02.2016 1:38:04\t2.21917808219\n'
p583
aS'583\t24.02.2016 1:48:04\t2.21917808219\n'
p584
aS'584\t24.02.2016 1:58:04\t2.21917808219\n'
p585
aS'585\t24.02.2016 2:08:04\t2.21917808219\n'
p586
aS'586\t24.02.2016 2:18:04\t2.21917808219\n'
p587
aS'587\t24.02.2016 2:28:21\t2.21917808219\n'
p588
aS'588\t24.02.2016 2:38:04\t2.21917808219\n'
p589
aS'589\t24.02.2016 2:48:04\t2.21917808219\n'
p590
aS'590\t24.02.2016 2:58:04\t2.21917808219\n'
p591
aS'591\t24.02.2016 3:08:04\t2.21917808219\n'
p592
aS'592\t24.02.2016 3:18:04\t2.21917808219\n'
p593
aS'593\t24.02.2016 3:28:04\t2.21917808219\n'
p594
aS'594\t24.02.2016 3:38:04\t2.21917808219\n'
p595
aS'595\t24.02.2016 3:48:04\t2.21917808219\n'
p596
aS'596\t24.02.2016 3:58:04\t2.21917808219\n'
p597
aS'597\t24.02.2016 4:08:04\t2.21917808219\n'
p598
aS'598\t24.02.2016 4:18:04\t2.21917808219\n'
p599
aS'599\t24.02.2016 4:28:04\t2.21917808219\n'
p600
aS'600\t24.02.2016 4:38:04\t2.21917808219\n'
p601
aS'601\t24.02.2016 4:48:04\t2.21917808219\n'
p602
aS'602\t24.02.2016 4:58:04\t2.21917808219\n'
p603
aS'603\t24.02.2016 5:08:03\t2.21917808219\n'
p604
aS'604\t24.02.2016 5:18:04\t2.21917808219\n'
p605
aS'605\t24.02.2016 5:28:03\t2.21917808219\n'
p606
aS'606\t24.02.2016 5:38:03\t2.21917808219\n'
p607
aS'607\t24.02.2016 5:48:03\t2.21917808219\n'
p608
aS'608\t24.02.2016 5:58:03\t2.21917808219\n'
p609
aS'609\t24.02.2016 6:08:03\t2.21917808219\n'
p610
aS'610\t24.02.2016 6:11:03\t2.21917808219\n'
p611
aS'611\t24.02.2016 7:18:10\t2.21917808219\n'
p612
aS'612\t24.02.2016 7:28:03\t2.21917808219\n'
p613
aS'613\t24.02.2016 7:38:03\t2.21917808219\n'
p614
aS'614\t24.02.2016 7:48:03\t2.21917808219\n'
p615
aS'615\t24.02.2016 7:58:03\t2.21917808219\n'
p616
aS'616\t24.02.2016 8:08:03\t2.21917808219\n'
p617
aS'617\t24.02.2016 8:18:03\t2.21917808219\n'
p618
aS'618\t24.02.2016 8:28:03\t2.21917808219\n'
p619
aS'619\t24.02.2016 8:38:03\t2.21917808219\n'
p620
aS'620\t24.02.2016 8:48:03\t2.21917808219\n'
p621
aS'621\t24.02.2016 8:58:03\t2.21917808219\n'
p622
aS'622\t24.02.2016 9:08:03\t2.21917808219\n'
p623
aS'623\t24.02.2016 9:18:03\t2.21917808219\n'
p624
aS'624\t24.02.2016 9:28:03\t2.21917808219\n'
p625
aS'625\t24.02.2016 9:38:03\t2.21917808219\n'
p626
aS'626\t24.02.2016 9:48:03\t2.21917808219\n'
p627
aS'627\t24.02.2016 9:58:03\t2.21917808219\n'
p628
aS'628\t24.02.2016 10:08:03\t2.21917808219\n'
p629
aS'629\t24.02.2016 10:18:03\t2.21917808219\n'
p630
aS'630\t24.02.2016 10:28:03\t2.21917808219\n'
p631
aS'631\t24.02.2016 10:38:03\t2.21917808219\n'
p632
aS'632\t24.02.2016 10:48:03\t2.21917808219\n'
p633
aS'633\t24.02.2016 10:58:03\t2.21917808219\n'
p634
aS'634\t24.02.2016 11:08:03\t2.21917808219\n'
p635
aS'635\t24.02.2016 11:18:03\t2.21917808219\n'
p636
aS'636\t24.02.2016 11:28:03\t2.21917808219\n'
p637
aS'637\t24.02.2016 11:38:03\t2.21917808219\n'
p638
aS'638\t24.02.2016 11:48:03\t2.21917808219\n'
p639
aS'639\t24.02.2016 11:58:03\t2.21917808219\n'
p640
aS'640\t24.02.2016 12:08:18\t2.21917808219\n'
p641
aS'641\t24.02.2016 12:18:03\t2.21917808219\n'
p642
aS'642\t24.02.2016 12:28:02\t2.21917808219\n'
p643
aS'643\t24.02.2016 12:38:03\t2.21917808219\n'
p644
aS'644\t24.02.2016 12:48:03\t2.21917808219\n'
p645
aS'645\t24.02.2016 12:58:02\t2.21917808219\n'
p646
aS'646\t24.02.2016 13:08:02\t2.21917808219\n'
p647
aS'647\t24.02.2016 13:18:02\t2.21917808219\n'
p648
aS'648\t24.02.2016 13:28:03\t2.21917808219\n'
p649
aS'649\t24.02.2016 13:38:02\t2.21917808219\n'
p650
aS'650\t24.02.2016 13:48:02\t2.21917808219\n'
p651
aS'651\t24.02.2016 13:58:02\t2.21917808219\n'
p652
aS'652\t24.02.2016 14:08:02\t2.21917808219\n'
p653
aS'653\t24.02.2016 14:18:02\t2.21917808219\n'
p654
aS'654\t24.02.2016 14:28:02\t2.21917808219\n'
p655
aS'655\t24.02.2016 14:38:02\t2.21917808219\n'
p656
aS'656\t24.02.2016 14:48:02\t2.21917808219\n'
p657
aS'657\t24.02.2016 14:58:02\t2.21917808219\n'
p658
aS'658\t24.02.2016 15:08:02\t2.21917808219\n'
p659
aS'659\t24.02.2016 15:18:02\t2.21917808219\n'
p660
aS'660\t24.02.2016 15:28:02\t2.21917808219\n'
p661
aS'661\t24.02.2016 15:38:02\t2.21917808219\n'
p662
aS'662\t24.02.2016 15:48:02\t2.21917808219\n'
p663
aS'663\t24.02.2016 15:58:02\t2.21917808219\n'
p664
aS'664\t24.02.2016 16:08:02\t2.21917808219\n'
p665
aS'665\t24.02.2016 16:18:02\t2.21917808219\n'
p666
aS'666\t24.02.2016 16:28:02\t2.21917808219\n'
p667
aS'667\t24.02.2016 16:38:02\t2.21917808219\n'
p668
aS'668\t24.02.2016 16:48:02\t2.21917808219\n'
p669
aS'669\t24.02.2016 16:58:17\t2.21917808219\n'
p670
aS'670\t24.02.2016 17:08:02\t2.21917808219\n'
p671
aS'671\t24.02.2016 17:18:02\t2.21917808219\n'
p672
aS'672\t24.02.2016 17:28:02\t2.21917808219\n'
p673
aS'673\t24.02.2016 17:38:02\t2.21917808219\n'
p674
aS'674\t24.02.2016 17:48:02\t2.21917808219\n'
p675
aS'675\t24.02.2016 17:58:02\t2.21917808219\n'
p676
aS'676\t24.02.2016 18:08:02\t2.21917808219\n'
p677
aS'677\t24.02.2016 18:18:02\t2.18395303327\n'
p678
aS'678\t24.02.2016 18:28:02\t2.18395303327\n'
p679
aS'679\t24.02.2016 18:38:01\t2.18395303327\n'
p680
aS'680\t24.02.2016 18:48:01\t2.18395303327\n'
p681
aS'681\t24.02.2016 18:58:01\t2.18395303327\n'
p682
aS'682\t24.02.2016 19:08:01\t2.18395303327\n'
p683
aS'683\t24.02.2016 19:18:01\t2.18395303327\n'
p684
aS'684\t24.02.2016 19:28:01\t2.18395303327\n'
p685
aS'685\t24.02.2016 19:38:01\t2.18395303327\n'
p686
aS'686\t24.02.2016 19:48:01\t2.18395303327\n'
p687
aS'687\t24.02.2016 19:58:01\t2.18395303327\n'
p688
aS'688\t24.02.2016 20:08:01\t2.18395303327\n'
p689
aS'689\t24.02.2016 20:18:01\t2.18395303327\n'
p690
aS'690\t24.02.2016 20:28:01\t2.20156555773\n'
p691
aS'691\t24.02.2016 20:38:01\t2.20156555773\n'
p692
aS'692\t24.02.2016 20:48:01\t2.20156555773\n'
p693
aS'693\t24.02.2016 20:58:01\t2.20156555773\n'
p694
aS'694\t24.02.2016 21:08:01\t2.20156555773\n'
p695
aS'695\t24.02.2016 21:18:01\t2.20156555773\n'
p696
aS'696\t24.02.2016 21:28:01\t2.20156555773\n'
p697
aS'697\t24.02.2016 21:38:01\t2.20156555773\n'
p698
aS'698\t24.02.2016 21:48:16\t2.20156555773\n'
p699
aS'699\t24.02.2016 21:58:01\t2.20156555773\n'
p700
aS'700\t24.02.2016 22:08:01\t2.20156555773\n'
p701
aS'701\t24.02.2016 22:18:01\t2.20156555773\n'
p702
aS'702\t24.02.2016 22:28:01\t2.20156555773\n'
p703
aS'703\t24.02.2016 22:38:01\t2.20156555773\n'
p704
aS'704\t24.02.2016 22:48:01\t2.20156555773\n'
p705
aS'705\t24.02.2016 22:58:01\t2.20156555773\n'
p706
aS'706\t24.02.2016 23:08:01\t2.20156555773\n'
p707
aS'707\t24.02.2016 23:18:01\t2.20156555773\n'
p708
aS'708\t24.02.2016 23:28:01\t2.20156555773\n'
p709
aS'709\t24.02.2016 23:38:01\t2.20156555773\n'
p710
aS'710\t24.02.2016 23:48:01\t2.20156555773\n'
p711
aS'711\t24.02.2016 23:58:01\t2.20156555773\n'
p712
aS'712\t25.02.2016 0:08:01\t2.20156555773\n'
p713
aS'713\t25.02.2016 0:18:00\t2.20156555773\n'
p714
aS'714\t25.02.2016 0:28:01\t2.20156555773\n'
p715
aS'715\t25.02.2016 0:38:01\t2.20156555773\n'
p716
aS'716\t25.02.2016 0:48:01\t2.20156555773\n'
p717
aS'717\t25.02.2016 0:58:01\t2.20156555773\n'
p718
aS'718\t25.02.2016 1:08:01\t2.20156555773\n'
p719
aS'719\t25.02.2016 1:18:00\t2.20156555773\n'
p720
aS'720\t25.02.2016 1:28:00\t2.20156555773\n'
p721
aS'721\t25.02.2016 1:38:00\t2.20156555773\n'
p722
aS'722\t25.02.2016 1:48:00\t2.20156555773\n'
p723
aS'723\t25.02.2016 1:58:01\t2.20156555773\n'
p724
aS'724\t25.02.2016 2:08:00\t2.20156555773\n'
p725
aS'725\t25.02.2016 2:18:00\t2.20156555773\n'
p726
aS'726\t25.02.2016 2:28:15\t2.20156555773\n'
p727
aS'727\t25.02.2016 2:38:01\t2.20156555773\n'
p728
aS'728\t25.02.2016 2:48:00\t2.20156555773\n'
p729
aS'729\t25.02.2016 2:58:00\t2.20156555773\n'
p730
aS'730\t25.02.2016 3:08:00\t2.20156555773\n'
p731
aS'731\t25.02.2016 3:18:00\t2.18395303327\n'
p732
aS'732\t25.02.2016 3:28:00\t2.18395303327\n'
p733
aS'733\t25.02.2016 3:38:00\t2.18395303327\n'
p734
aS'734\t25.02.2016 3:48:00\t2.18395303327\n'
p735
aS'735\t25.02.2016 3:58:00\t2.18395303327\n'
p736
aS'736\t25.02.2016 4:08:00\t2.18395303327\n'
p737
aS'737\t25.02.2016 4:18:00\t2.13111545988\n'
p738
aS'738\t25.02.2016 4:28:00\t2.13111545988\n'
p739
aS'739\t25.02.2016 4:38:00\t2.13111545988\n'
p740
aS'740\t25.02.2016 4:48:00\t2.13111545988\n'
p741
aS'741\t25.02.2016 4:58:00\t2.13111545988\n'
p742
aS'742\t25.02.2016 5:08:00\t2.13111545988\n'
p743
aS'743\t25.02.2016 5:18:00\t2.13111545988\n'
p744
aS'744\t25.02.2016 5:28:00\t2.13111545988\n'
p745
aS'745\t25.02.2016 5:38:00\t2.13111545988\n'
p746
aS'746\t25.02.2016 5:48:00\t2.13111545988\n'
p747
aS'747\t25.02.2016 5:58:00\t2.13111545988\n'
p748
aS'748\t25.02.2016 6:08:00\t2.13111545988\n'
p749
aS'749\t25.02.2016 6:18:00\t2.13111545988\n'
p750
aS'750\t25.02.2016 6:28:00\t2.13111545988\n'
p751
aS'751\t25.02.2016 6:38:00\t2.13111545988\n'
p752
aS'752\t25.02.2016 6:48:00\t2.13111545988\n'
p753
aS'753\t25.02.2016 6:58:00\t2.13111545988\n'
p754
aS'754\t25.02.2016 7:08:00\t2.13111545988\n'
p755
aS'755\t25.02.2016 7:18:15\t2.13111545988\n'
p756
aS'756\t25.02.2016 7:28:00\t2.13111545988\n'
p757
aS'757\t25.02.2016 7:38:00\t2.13111545988\n'
p758
aS'758\t25.02.2016 7:47:59\t2.13111545988\n'
p759
aS'759\t25.02.2016 7:57:59\t2.13111545988\n'
p760
aS'760\t25.02.2016 8:07:59\t2.13111545988\n'
p761
aS'761\t25.02.2016 8:17:59\t2.13111545988\n'
p762
aS'762\t25.02.2016 8:27:59\t2.13111545988\n'
p763
aS'763\t25.02.2016 8:37:59\t2.13111545988\n'
p764
aS'764\t25.02.2016 8:47:59\t2.13111545988\n'
p765
aS'765\t25.02.2016 8:57:59\t2.13111545988\n'
p766
aS'766\t25.02.2016 9:07:59\t2.13111545988\n'
p767
aS'767\t25.02.2016 9:17:59\t2.13111545988\n'
p768
aS'768\t25.02.2016 9:27:59\t2.13111545988\n'
p769
aS'769\t25.02.2016 9:37:59\t2.13111545988\n'
p770
aS'770\t25.02.2016 9:48:00\t2.20156555773\n'
p771
aS'771\t25.02.2016 9:57:59\t2.20156555773\n'
p772
aS'772\t25.02.2016 10:07:59\t2.20156555773\n'
p773
aS'773\t25.02.2016 10:17:59\t2.18395303327\n'
p774
aS'774\t25.02.2016 10:27:59\t2.20156555773\n'
p775
aS'775\t25.02.2016 10:37:59\t2.20156555773\n'
p776
aS'776\t25.02.2016 10:47:59\t2.20156555773\n'
p777
aS'777\t25.02.2016 10:57:59\t2.20156555773\n'
p778
aS'778\t25.02.2016 11:07:59\t2.20156555773\n'
p779
aS'779\t25.02.2016 11:17:59\t2.20156555773\n'
p780
aS'780\t25.02.2016 11:27:59\t2.20156555773\n'
p781
aS'781\t25.02.2016 11:37:59\t2.20156555773\n'
p782
aS'782\t25.02.2016 11:47:59\t2.20156555773\n'
p783
aS'783\t25.02.2016 11:57:59\t2.20156555773\n'
p784
aS'784\t25.02.2016 12:08:15\t2.18395303327\n'
p785
aS'785\t25.02.2016 12:17:59\t2.18395303327\n'
p786
aS'786\t25.02.2016 12:27:59\t2.20156555773\n'
p787
aS'787\t25.02.2016 12:37:59\t2.20156555773\n'
p788
aS'788\t25.02.2016 12:47:59\t2.18395303327\n'
p789
aS'789\t25.02.2016 12:57:59\t2.20156555773\n'
p790
aS'790\t25.02.2016 13:07:59\t2.20156555773\n'
p791
aS'791\t25.02.2016 13:18:01\t2.20156555773\n'
p792
aS'792\t25.02.2016 13:28:01\t2.20156555773\n'
p793
aS'793\t25.02.2016 13:38:01\t2.18395303327\n'
p794
aS'794\t25.02.2016 13:48:01\t2.20156555773\n'
p795
aS'795\t25.02.2016 13:58:02\t2.18395303327\n'
p796
aS'796\t25.02.2016 14:08:02\t2.18395303327\n'
p797
aS'797\t25.02.2016 14:18:02\t2.20156555773\n'
p798
aS'798\t25.02.2016 14:28:02\t2.18395303327\n'
p799
aS'799\t25.02.2016 14:38:02\t2.18395303327\n'
p800
aS'800\t25.02.2016 14:48:03\t2.18395303327\n'
p801
aS'801\t25.02.2016 14:58:03\t2.18395303327\n'
p802
aS'802\t25.02.2016 15:08:03\t2.20156555773\n'
p803
aS'803\t25.02.2016 15:18:03\t2.20156555773\n'
p804
aS'804\t25.02.2016 15:28:03\t2.18395303327\n'
p805
aS'805\t25.02.2016 15:38:03\t2.18395303327\n'
p806
aS'806\t25.02.2016 15:48:03\t2.18395303327\n'
p807
aS'807\t25.02.2016 15:58:04\t2.20156555773\n'
p808
aS'808\t25.02.2016 16:08:04\t2.20156555773\n'
p809
aS'809\t25.02.2016 16:18:04\t2.14872798434\n'
p810
aS'810\t25.02.2016 16:28:04\t2.14872798434\n'
p811
aS'811\t25.02.2016 16:38:04\t2.14872798434\n'
p812
aS'812\t25.02.2016 16:48:04\t2.14872798434\n'
p813
aS'813\t25.02.2016 16:58:20\t2.14872798434\n'
p814
aS'814\t25.02.2016 17:08:05\t2.14872798434\n'
p815
aS'815\t25.02.2016 17:18:05\t2.14872798434\n'
p816
aS'816\t25.02.2016 17:28:05\t2.14872798434\n'
p817
aS'817\t25.02.2016 17:38:05\t2.14872798434\n'
p818
aS'818\t25.02.2016 17:48:05\t2.14872798434\n'
p819
aS'819\t25.02.2016 17:58:05\t2.13111545988\n'
p820
aS'820\t25.02.2016 18:08:06\t2.13111545988\n'
p821
aS'821\t25.02.2016 18:18:06\t2.13111545988\n'
p822
aS'822\t25.02.2016 18:28:06\t2.13111545988\n'
p823
aS'823\t25.02.2016 18:38:06\t2.13111545988\n'
p824
aS'824\t25.02.2016 18:48:06\t2.13111545988\n'
p825
aS'825\t25.02.2016 18:58:07\t2.13111545988\n'
p826
aS'826\t25.02.2016 19:08:07\t2.13111545988\n'
p827
aS'827\t25.02.2016 19:18:07\t2.13111545988\n'
p828
aS'828\t25.02.2016 19:28:07\t2.13111545988\n'
p829
aS'829\t25.02.2016 19:38:07\t2.13111545988\n'
p830
aS'830\t25.02.2016 19:48:07\t2.13111545988\n'
p831
aS'831\t25.02.2016 19:58:08\t2.13111545988\n'
p832
aS'832\t25.02.2016 20:08:07\t2.13111545988\n'
p833
aS'833\t25.02.2016 20:18:08\t2.13111545988\n'
p834
aS'834\t25.02.2016 20:28:08\t2.13111545988\n'
p835
aS'835\t25.02.2016 20:38:08\t2.13111545988\n'
p836
aS'836\t25.02.2016 20:48:08\t2.13111545988\n'
p837
aS'837\t25.02.2016 20:58:08\t2.13111545988\n'
p838
aS'838\t25.02.2016 21:08:08\t2.13111545988\n'
p839
aS'839\t25.02.2016 21:18:09\t2.13111545988\n'
p840
aS'840\t25.02.2016 21:28:09\t2.13111545988\n'
p841
aS'841\t25.02.2016 21:38:09\t2.13111545988\n'
p842
aS'842\t25.02.2016 21:48:25\t2.13111545988\n'
p843
aS'843\t25.02.2016 21:58:09\t2.13111545988\n'
p844
aS'844\t25.02.2016 22:08:09\t2.13111545988\n'
p845
aS'845\t25.02.2016 22:18:09\t2.13111545988\n'
p846
aS'846\t25.02.2016 22:28:10\t2.13111545988\n'
p847
aS'847\t25.02.2016 22:38:10\t2.13111545988\n'
p848
aS'848\t25.02.2016 22:48:10\t2.13111545988\n'
p849
aS'849\t25.02.2016 22:58:10\t2.13111545988\n'
p850
aS'850\t25.02.2016 23:08:10\t2.13111545988\n'
p851
aS'851\t25.02.2016 23:18:11\t2.13111545988\n'
p852
aS'852\t25.02.2016 23:28:11\t2.09589041096\n'
p853
aS'853\t25.02.2016 23:38:11\t2.09589041096\n'
p854
aS'854\t25.02.2016 23:48:11\t2.09589041096\n'
p855
aS'855\t25.02.2016 23:58:11\t2.09589041096\n'
p856
aS'856\t26.02.2016 0:08:11\t2.09589041096\n'
p857
aS'857\t26.02.2016 0:18:12\t2.09589041096\n'
p858
aS'858\t26.02.2016 0:28:12\t2.09589041096\n'
p859
aS'859\t26.02.2016 0:38:12\t2.09589041096\n'
p860
aS'860\t26.02.2016 0:48:12\t2.09589041096\n'
p861
aS'861\t26.02.2016 0:58:12\t2.09589041096\n'
p862
aS'862\t26.02.2016 1:08:12\t2.09589041096\n'
p863
aS'863\t26.02.2016 1:18:13\t2.09589041096\n'
p864
aS'864\t26.02.2016 1:28:13\t2.09589041096\n'
p865
aS'865\t26.02.2016 1:38:13\t2.09589041096\n'
p866
aS'866\t26.02.2016 1:48:13\t2.09589041096\n'
p867
aS'867\t26.02.2016 1:58:13\t2.09589041096\n'
p868
aS'868\t26.02.2016 2:08:13\t2.09589041096\n'
p869
aS'869\t26.02.2016 2:18:13\t2.09589041096\n'
p870
aS'870\t26.02.2016 2:28:29\t2.09589041096\n'
p871
aS'871\t26.02.2016 2:38:14\t2.09589041096\n'
p872
aS'872\t26.02.2016 2:48:14\t2.09589041096\n'
p873
aS'873\t26.02.2016 2:58:14\t2.09589041096\n'
p874
aS'874\t26.02.2016 3:08:14\t2.09589041096\n'
p875
aS'875\t26.02.2016 3:18:14\t2.09589041096\n'
p876
aS'876\t26.02.2016 3:28:15\t2.09589041096\n'
p877
aS'877\t26.02.2016 3:38:15\t2.09589041096\n'
p878
aS'878\t26.02.2016 3:48:15\t2.09589041096\n'
p879
aS'879\t26.02.2016 3:58:15\t2.09589041096\n'
p880
aS'880\t26.02.2016 4:08:15\t2.09589041096\n'
p881
aS'881\t26.02.2016 4:18:15\t2.09589041096\n'
p882
aS'882\t26.02.2016 4:28:15\t2.09589041096\n'
p883
aS'883\t26.02.2016 4:38:16\t2.09589041096\n'
p884
aS'884\t26.02.2016 4:48:16\t2.09589041096\n'
p885
aS'885\t26.02.2016 4:58:16\t2.09589041096\n'
p886
aS'886\t26.02.2016 5:08:16\t2.09589041096\n'
p887
aS'887\t26.02.2016 5:18:16\t2.09589041096\n'
p888
aS'888\t26.02.2016 5:28:16\t2.09589041096\n'
p889
aS'889\t26.02.2016 5:38:17\t2.09589041096\n'
p890
aS'890\t26.02.2016 5:48:17\t2.09589041096\n'
p891
aS'891\t26.02.2016 5:58:17\t2.09589041096\n'
p892
aS'892\t26.02.2016 6:08:17\t2.09589041096\n'
p893
aS'893\t26.02.2016 6:18:17\t2.09589041096\n'
p894
aS'894\t26.02.2016 6:28:17\t2.09589041096\n'
p895
aS'895\t26.02.2016 6:38:17\t2.09589041096\n'
p896
aS'896\t26.02.2016 6:48:18\t2.09589041096\n'
p897
aS'897\t26.02.2016 6:58:18\t2.09589041096\n'
p898
aS'898\t26.02.2016 7:08:18\t2.09589041096\n'
p899
aS'899\t26.02.2016 7:18:33\t2.09589041096\n'
p900
aS'900\t26.02.2016 7:28:18\t2.09589041096\n'
p901
aS'901\t26.02.2016 7:38:18\t2.09589041096\n'
p902
aS'902\t26.02.2016 7:48:19\t2.09589041096\n'
p903
aS'903\t26.02.2016 7:58:19\t2.09589041096\n'
p904
aS'904\t26.02.2016 8:08:19\t2.09589041096\n'
p905
aS'905\t26.02.2016 8:18:19\t2.09589041096\n'
p906
aS'906\t26.02.2016 8:28:19\t2.09589041096\n'
p907
aS'907\t26.02.2016 8:38:19\t2.09589041096\n'
p908
aS'908\t26.02.2016 8:48:20\t2.09589041096\n'
p909
aS'909\t26.02.2016 8:58:20\t2.09589041096\n'
p910
aS'910\t26.02.2016 9:08:20\t2.09589041096\n'
p911
aS'911\t26.02.2016 9:18:20\t2.09589041096\n'
p912
aS'912\t26.02.2016 9:28:21\t2.09589041096\n'
p913
aS'913\t26.02.2016 9:38:20\t2.09589041096\n'
p914
aS'914\t26.02.2016 9:48:21\t2.09589041096\n'
p915
aS'915\t26.02.2016 9:58:21\t2.09589041096\n'
p916
aS'916\t26.02.2016 10:08:21\t2.09589041096\n'
p917
aS'917\t26.02.2016 10:18:21\t2.09589041096\n'
p918
aS'918\t26.02.2016 10:28:21\t2.09589041096\n'
p919
aS'919\t26.02.2016 10:38:21\t2.09589041096\n'
p920
aS'920\t26.02.2016 10:48:21\t2.09589041096\n'
p921
aS'921\t26.02.2016 10:58:22\t2.09589041096\n'
p922
aS'922\t26.02.2016 11:08:22\t2.09589041096\n'
p923
aS'923\t26.02.2016 11:18:22\t2.09589041096\n'
p924
aS'924\t26.02.2016 11:28:22\t2.09589041096\n'
p925
aS'925\t26.02.2016 11:38:22\t2.09589041096\n'
p926
aS'926\t26.02.2016 11:48:22\t2.09589041096\n'
p927
aS'927\t26.02.2016 11:58:22\t2.09589041096\n'
p928
aS'928\t26.02.2016 12:08:38\t2.09589041096\n'
p929
aS'929\t26.02.2016 12:18:23\t2.09589041096\n'
p930
aS'930\t26.02.2016 12:28:23\t2.09589041096\n'
p931
aS'931\t26.02.2016 12:38:23\t2.09589041096\n'
p932
aS'932\t26.02.2016 12:48:23\t2.09589041096\n'
p933
aS'933\t26.02.2016 12:58:24\t2.09589041096\n'
p934
aS'934\t26.02.2016 13:08:24\t2.09589041096\n'
p935
aS'935\t26.02.2016 13:18:24\t2.09589041096\n'
p936
aS'936\t26.02.2016 13:28:24\t2.09589041096\n'
p937
aS'937\t26.02.2016 13:38:24\t2.09589041096\n'
p938
aS'938\t26.02.2016 13:48:24\t2.09589041096\n'
p939
aS'939\t26.02.2016 13:58:24\t2.09589041096\n'
p940
aS'940\t26.02.2016 14:08:24\t2.09589041096\n'
p941
aS'941\t26.02.2016 14:18:24\t2.09589041096\n'
p942
aS'942\t26.02.2016 14:28:24\t2.09589041096\n'
p943
aS'943\t26.02.2016 14:38:24\t2.09589041096\n'
p944
aS'944\t26.02.2016 14:48:23\t2.09589041096\n'
p945
aS'945\t26.02.2016 14:58:23\t2.09589041096\n'
p946
aS'946\t26.02.2016 15:08:23\t2.09589041096\n'
p947
aS'947\t26.02.2016 15:18:23\t2.09589041096\n'
p948
aS'948\t26.02.2016 15:28:23\t2.09589041096\n'
p949
aS'949\t26.02.2016 15:38:23\t2.09589041096\n'
p950
aS'950\t26.02.2016 15:48:23\t2.09589041096\n'
p951
aS'951\t26.02.2016 15:58:23\t2.09589041096\n'
p952
aS'952\t26.02.2016 16:08:23\t2.09589041096\n'
p953
aS'953\t26.02.2016 16:18:23\t2.09589041096\n'
p954
aS'954\t26.02.2016 16:28:23\t2.09589041096\n'
p955
aS'955\t26.02.2016 16:38:23\t2.09589041096\n'
p956
aS'956\t26.02.2016 16:48:23\t2.09589041096\n'
p957
aS'957\t26.02.2016 16:58:38\t2.09589041096\n'
p958
aS'958\t26.02.2016 17:08:23\t2.09589041096\n'
p959
aS'959\t26.02.2016 17:18:23\t2.09589041096\n'
p960
aS'960\t26.02.2016 17:28:23\t2.09589041096\n'
p961
aS'961\t26.02.2016 17:38:23\t2.09589041096\n'
p962
aS'962\t26.02.2016 17:48:23\t2.09589041096\n'
p963
aS'963\t26.02.2016 17:58:23\t2.06066536204\n'
p964
aS'964\t26.02.2016 18:08:23\t2.06066536204\n'
p965
aS'965\t26.02.2016 18:18:23\t2.06066536204\n'
p966
aS'966\t26.02.2016 18:28:23\t2.06066536204\n'
p967
aS'967\t26.02.2016 18:38:23\t2.06066536204\n'
p968
aS'968\t26.02.2016 18:48:23\t2.06066536204\n'
p969
aS'969\t26.02.2016 18:58:23\t2.06066536204\n'
p970
aS'970\t26.02.2016 19:08:23\t2.06066536204\n'
p971
aS'971\t26.02.2016 19:18:23\t2.06066536204\n'
p972
aS'972\t26.02.2016 19:28:23\t2.06066536204\n'
p973
aS'973\t26.02.2016 19:38:23\t2.06066536204\n'
p974
aS'974\t26.02.2016 19:48:23\t2.06066536204\n'
p975
aS'975\t26.02.2016 19:58:22\t2.06066536204\n'
p976
aS'976\t26.02.2016 20:08:23\t2.06066536204\n'
p977
aS'977\t26.02.2016 20:18:22\t2.06066536204\n'
p978
aS'978\t26.02.2016 20:28:22\t2.06066536204\n'
p979
aS'979\t26.02.2016 20:38:22\t2.04305283757\n'
p980
aS'980\t26.02.2016 20:48:22\t2.04305283757\n'
p981
aS'981\t26.02.2016 20:58:22\t2.04305283757\n'
p982
aS'982\t26.02.2016 21:08:22\t2.04305283757\n'
p983
aS'983\t26.02.2016 21:18:22\t2.04305283757\n'
p984
aS'984\t26.02.2016 21:28:22\t2.04305283757\n'
p985
aS'985\t26.02.2016 21:38:22\t2.04305283757\n'
p986
aS'986\t26.02.2016 21:48:39\t2.04305283757\n'
p987
aS'987\t26.02.2016 21:58:22\t2.04305283757\n'
p988
aS'988\t26.02.2016 22:08:22\t2.04305283757\n'
p989
aS'989\t26.02.2016 22:18:22\t2.04305283757\n'
p990
aS'990\t26.02.2016 22:28:23\t2.04305283757\n'
p991
aS'991\t26.02.2016 22:38:22\t2.04305283757\n'
p992
aS'992\t26.02.2016 22:48:22\t2.04305283757\n'
p993
aS'993\t26.02.2016 22:58:22\t2.04305283757\n'
p994
aS'994\t26.02.2016 23:08:22\t2.04305283757\n'
p995
aS'995\t26.02.2016 23:18:22\t2.04305283757\n'
p996
aS'996\t26.02.2016 23:28:22\t2.04305283757\n'
p997
aS'997\t26.02.2016 23:38:22\t2.04305283757\n'
p998
aS'998\t26.02.2016 23:48:22\t2.04305283757\n'
p999
aS'999\t26.02.2016 23:58:22\t2.04305283757\n'
p1000
aS'1000\t27.02.2016 0:08:22\t2.04305283757\n'
p1001
aS'1001\t27.02.2016 0:18:22\t2.04305283757\n'
p1002
aS'1002\t27.02.2016 0:28:22\t2.04305283757\n'
p1003
aS'1003\t27.02.2016 0:38:22\t2.04305283757\n'
p1004
aS'1004\t27.02.2016 0:48:22\t2.04305283757\n'
p1005
aS'1005\t27.02.2016 0:58:22\t2.04305283757\n'
p1006
aS'1006\t27.02.2016 1:08:22\t2.04305283757\n'
p1007
aS'1007\t27.02.2016 1:18:22\t2.04305283757\n'
p1008
aS'1008\t27.02.2016 1:28:22\t2.04305283757\n'
p1009
aS'1009\t27.02.2016 1:38:22\t2.04305283757\n'
p1010
aS'1010\t27.02.2016 1:48:22\t2.04305283757\n'
p1011
aS'1011\t27.02.2016 1:58:22\t2.04305283757\n'
p1012
aS'1012\t27.02.2016 2:08:22\t2.04305283757\n'
p1013
aS'1013\t27.02.2016 2:18:22\t2.04305283757\n'
p1014
aS'1014\t27.02.2016 2:29:21\t2.04305283757\n'
p1015
aS'1015\t27.02.2016 2:38:22\t2.04305283757\n'
p1016
aS'1016\t27.02.2016 2:48:21\t2.04305283757\n'
p1017
aS'1017\t27.02.2016 2:58:22\t2.04305283757\n'
p1018
aS'1018\t27.02.2016 3:09:21\t2.04305283757\n'
p1019
aS'1019\t27.02.2016 3:18:21\t2.04305283757\n'
p1020
aS'1020\t27.02.2016 3:29:21\t2.04305283757\n'
p1021
aS'1021\t27.02.2016 3:38:21\t2.04305283757\n'
p1022
aS'1022\t27.02.2016 3:49:21\t2.04305283757\n'
p1023
aS'1023\t27.02.2016 3:58:21\t2.04305283757\n'
p1024
aS'1024\t27.02.2016 4:09:21\t2.04305283757\n'
p1025
aS'1025\t27.02.2016 4:19:21\t2.04305283757\n'
p1026
aS'1026\t27.02.2016 4:28:21\t2.04305283757\n'
p1027
aS'1027\t27.02.2016 4:39:21\t2.04305283757\n'
p1028
aS'1028\t27.02.2016 4:48:21\t2.04305283757\n'
p1029
aS'1029\t27.02.2016 4:59:21\t2.04305283757\n'
p1030
aS'1030\t27.02.2016 5:09:21\t2.04305283757\n'
p1031
aS'1031\t27.02.2016 5:18:21\t2.04305283757\n'
p1032
aS'1032\t27.02.2016 5:29:21\t2.04305283757\n'
p1033
aS'1033\t27.02.2016 5:39:21\t2.04305283757\n'
p1034
aS'1034\t27.02.2016 5:49:21\t2.04305283757\n'
p1035
aS'1035\t27.02.2016 5:59:21\t2.04305283757\n'
p1036
aS'1036\t27.02.2016 6:09:21\t2.04305283757\n'
p1037
aS'1037\t27.02.2016 6:19:21\t2.04305283757\n'
p1038
aS'1038\t27.02.2016 6:29:21\t2.04305283757\n'
p1039
aS'1039\t27.02.2016 6:39:21\t2.04305283757\n'
p1040
aS'1040\t27.02.2016 6:48:21\t2.04305283757\n'
p1041
aS'1041\t27.02.2016 6:59:21\t2.04305283757\n'
p1042
aS'1042\t27.02.2016 7:09:21\t2.04305283757\n'
p1043
aS'1043\t27.02.2016 7:19:21\t2.04305283757\n'
p1044
aS'1044\t27.02.2016 7:28:21\t2.04305283757\n'
p1045
aS'1045\t27.02.2016 7:38:21\t2.04305283757\n'
p1046
aS'1046\t27.02.2016 7:49:21\t2.04305283757\n'
p1047
aS'1047\t27.02.2016 7:58:21\t2.04305283757\n'
p1048
aS'1048\t27.02.2016 8:09:21\t2.04305283757\n'
p1049
aS'1049\t27.02.2016 8:19:21\t2.04305283757\n'
p1050
aS'1050\t27.02.2016 8:29:21\t2.04305283757\n'
p1051
aS'1051\t27.02.2016 8:39:21\t2.04305283757\n'
p1052
aS'1052\t27.02.2016 8:49:21\t2.04305283757\n'
p1053
aS'1053\t27.02.2016 8:59:21\t2.04305283757\n'
p1054
aS'1054\t27.02.2016 9:09:21\t2.04305283757\n'
p1055
aS'1055\t27.02.2016 9:19:21\t2.04305283757\n'
p1056
aS'1056\t27.02.2016 9:29:21\t2.04305283757\n'
p1057
aS'1057\t27.02.2016 9:39:20\t2.04305283757\n'
p1058
aS'1058\t27.02.2016 9:49:21\t2.04305283757\n'
p1059
aS'1059\t27.02.2016 9:59:20\t2.04305283757\n'
p1060
aS'1060\t27.02.2016 10:09:20\t2.04305283757\n'
p1061
aS'1061\t27.02.2016 10:19:20\t2.04305283757\n'
p1062
aS'1062\t27.02.2016 10:29:21\t2.04305283757\n'
p1063
aS'1063\t27.02.2016 10:39:20\t2.04305283757\n'
p1064
aS'1064\t27.02.2016 10:49:20\t2.04305283757\n'
p1065
aS'1065\t27.02.2016 10:59:20\t2.04305283757\n'
p1066
aS'1066\t27.02.2016 11:09:20\t2.04305283757\n'
p1067
aS'1067\t27.02.2016 11:19:20\t2.04305283757\n'
p1068
aS'1068\t27.02.2016 11:29:20\t2.04305283757\n'
p1069
aS'1069\t27.02.2016 11:39:20\t2.04305283757\n'
p1070
aS'1070\t27.02.2016 11:49:20\t2.04305283757\n'
p1071
aS'1071\t27.02.2016 11:59:20\t2.04305283757\n'
p1072
aS'1072\t27.02.2016 12:09:20\t2.04305283757\n'
p1073
aS'1073\t27.02.2016 12:19:20\t2.04305283757\n'
p1074
aS'1074\t27.02.2016 12:29:20\t2.04305283757\n'
p1075
aS'1075\t27.02.2016 12:39:20\t2.04305283757\n'
p1076
aS'1076\t27.02.2016 12:49:20\t2.04305283757\n'
p1077
aS'1077\t27.02.2016 12:59:20\t2.04305283757\n'
p1078
aS'1078\t27.02.2016 13:09:20\t2.04305283757\n'
p1079
aS'1079\t27.02.2016 13:19:20\t2.04305283757\n'
p1080
aS'1080\t27.02.2016 13:29:20\t2.04305283757\n'
p1081
aS'1081\t27.02.2016 13:39:20\t2.04305283757\n'
p1082
aS'1082\t27.02.2016 13:49:20\t2.04305283757\n'
p1083
aS'1083\t27.02.2016 13:59:20\t2.04305283757\n'
p1084
aS'1084\t27.02.2016 14:09:20\t2.04305283757\n'
p1085
aS'1085\t27.02.2016 14:19:20\t2.04305283757\n'
p1086
aS'1086\t27.02.2016 14:29:20\t2.04305283757\n'
p1087
aS'1087\t27.02.2016 14:39:20\t2.04305283757\n'
p1088
aS'1088\t27.02.2016 14:49:20\t2.04305283757\n'
p1089
aS'1089\t27.02.2016 14:59:20\t1.95499021526\n'
p1090
aS'1090\t27.02.2016 15:09:19\t1.95499021526\n'
p1091
aS'1091\t27.02.2016 15:19:19\t1.95499021526\n'
p1092
aS'1092\t27.02.2016 15:29:19\t1.95499021526\n'
p1093
aS'1093\t27.02.2016 15:39:19\t1.95499021526\n'
p1094
aS'1094\t27.02.2016 15:49:19\t1.95499021526\n'
p1095
aS'1095\t27.02.2016 15:59:20\t1.95499021526\n'
p1096
aS'1096\t27.02.2016 16:09:20\t1.95499021526\n'
p1097
aS'1097\t27.02.2016 16:19:20\t1.95499021526\n'
p1098
aS'1098\t27.02.2016 16:29:20\t1.95499021526\n'
p1099
aS'1099\t27.02.2016 16:39:20\t1.95499021526\n'
p1100
aS'1100\t27.02.2016 16:49:19\t1.95499021526\n'
p1101
aS'1101\t27.02.2016 16:59:19\t1.95499021526\n'
p1102
aS'1102\t27.02.2016 17:09:19\t1.95499021526\n'
p1103
aS'1103\t27.02.2016 17:19:19\t1.95499021526\n'
p1104
aS'1104\t27.02.2016 17:29:19\t1.95499021526\n'
p1105
aS'1105\t27.02.2016 17:39:19\t1.95499021526\n'
p1106
aS'1106\t27.02.2016 17:49:19\t1.95499021526\n'
p1107
aS'1107\t27.02.2016 17:59:19\t1.95499021526\n'
p1108
aS'1108\t27.02.2016 18:09:19\t1.95499021526\n'
p1109
aS'1109\t27.02.2016 18:19:19\t1.95499021526\n'
p1110
aS'1110\t27.02.2016 18:29:19\t1.95499021526\n'
p1111
aS'1111\t27.02.2016 18:39:19\t1.95499021526\n'
p1112
aS'1112\t27.02.2016 18:49:19\t1.95499021526\n'
p1113
aS'1113\t27.02.2016 18:59:19\t1.95499021526\n'
p1114
aS'1114\t27.02.2016 19:09:19\t1.95499021526\n'
p1115
aS'1115\t27.02.2016 19:19:19\t1.95499021526\n'
p1116
aS'1116\t27.02.2016 19:29:19\t1.95499021526\n'
p1117
aS'1117\t27.02.2016 19:39:19\t1.95499021526\n'
p1118
aS'1118\t27.02.2016 19:49:19\t1.95499021526\n'
p1119
aS'1119\t27.02.2016 19:59:19\t1.95499021526\n'
p1120
aS'1120\t27.02.2016 20:09:19\t1.95499021526\n'
p1121
aS'1121\t27.02.2016 20:19:19\t1.95499021526\n'
p1122
aS'1122\t27.02.2016 20:29:19\t1.95499021526\n'
p1123
aS'1123\t27.02.2016 20:39:19\t1.95499021526\n'
p1124
aS'1124\t27.02.2016 20:49:19\t1.95499021526\n'
p1125
aS'1125\t27.02.2016 20:59:19\t1.95499021526\n'
p1126
aS'1126\t27.02.2016 21:09:19\t1.95499021526\n'
p1127
aS'1127\t27.02.2016 21:19:19\t1.95499021526\n'
p1128
aS'1128\t27.02.2016 21:29:19\t1.95499021526\n'
p1129
aS'1129\t27.02.2016 21:39:19\t1.95499021526\n'
p1130
aS'1130\t27.02.2016 21:49:19\t1.95499021526\n'
p1131
aS'1131\t27.02.2016 21:59:19\t1.95499021526\n'
p1132
aS'1132\t27.02.2016 22:09:18\t1.95499021526\n'
p1133
aS'1133\t27.02.2016 22:19:18\t1.95499021526\n'
p1134
aS'1134\t27.02.2016 22:29:18\t1.95499021526\n'
p1135
aS'1135\t27.02.2016 22:39:18\t1.95499021526\n'
p1136
aS'1136\t27.02.2016 22:49:18\t1.95499021526\n'
p1137
aS'1137\t27.02.2016 22:59:18\t1.95499021526\n'
p1138
aS'1138\t27.02.2016 23:09:18\t1.95499021526\n'
p1139
aS'1139\t27.02.2016 23:19:18\t1.95499021526\n'
p1140
aS'1140\t27.02.2016 23:29:18\t1.95499021526\n'
p1141
aS'1141\t27.02.2016 23:39:18\t1.95499021526\n'
p1142
aS'1142\t27.02.2016 23:49:18\t1.95499021526\n'
p1143
aS'1143\t27.02.2016 23:59:18\t1.95499021526\n'
p1144
aS'1144\t28.02.2016 0:09:18\t1.95499021526\n'
p1145
aS'1145\t28.02.2016 0:19:18\t1.95499021526\n'
p1146
aS'1146\t28.02.2016 0:29:18\t1.95499021526\n'
p1147
aS'1147\t28.02.2016 0:39:18\t1.95499021526\n'
p1148
aS'1148\t28.02.2016 0:49:18\t1.95499021526\n'
p1149
aS'1149\t28.02.2016 0:59:18\t1.95499021526\n'
p1150
aS'1150\t28.02.2016 1:09:18\t1.95499021526\n'
p1151
aS'1151\t28.02.2016 1:19:19\t1.95499021526\n'
p1152
aS'1152\t28.02.2016 1:29:18\t1.95499021526\n'
p1153
aS'1153\t28.02.2016 1:39:18\t1.95499021526\n'
p1154
aS'1154\t28.02.2016 1:49:18\t1.95499021526\n'
p1155
aS'1155\t28.02.2016 1:59:18\t1.95499021526\n'
p1156
aS'1156\t28.02.2016 2:09:18\t1.95499021526\n'
p1157
aS'1157\t28.02.2016 2:19:18\t1.95499021526\n'
p1158
aS'1158\t28.02.2016 2:29:18\t1.95499021526\n'
p1159
aS'1159\t28.02.2016 2:39:18\t1.95499021526\n'
p1160
aS'1160\t28.02.2016 2:49:18\t1.95499021526\n'
p1161
aS'1161\t28.02.2016 2:59:18\t1.95499021526\n'
p1162
aS'1162\t28.02.2016 3:09:18\t1.95499021526\n'
p1163
aS'1163\t28.02.2016 3:19:18\t1.95499021526\n'
p1164
aS'1164\t28.02.2016 3:29:18\t1.95499021526\n'
p1165
aS'1165\t28.02.2016 3:39:18\t1.95499021526\n'
p1166
aS'1166\t28.02.2016 3:49:18\t1.95499021526\n'
p1167
aS'1167\t28.02.2016 3:59:18\t1.95499021526\n'
p1168
aS'1168\t28.02.2016 4:09:18\t1.95499021526\n'
p1169
aS'1169\t28.02.2016 4:19:18\t1.95499021526\n'
p1170
aS'1170\t28.02.2016 4:29:18\t1.95499021526\n'
p1171
aS'1171\t28.02.2016 4:39:17\t1.95499021526\n'
p1172
aS'1172\t28.02.2016 4:49:18\t1.95499021526\n'
p1173
aS'1173\t28.02.2016 4:59:17\t1.95499021526\n'
p1174
aS'1174\t28.02.2016 5:09:17\t1.95499021526\n'
p1175
aS'1175\t28.02.2016 5:19:17\t1.95499021526\n'
p1176
aS'1176\t28.02.2016 5:29:17\t1.95499021526\n'
p1177
aS'1177\t28.02.2016 5:39:17\t1.95499021526\n'
p1178
aS'1178\t28.02.2016 5:49:17\t1.95499021526\n'
p1179
aS'1179\t28.02.2016 5:59:17\t1.95499021526\n'
p1180
aS'1180\t28.02.2016 6:09:17\t1.95499021526\n'
p1181
aS'1181\t28.02.2016 6:19:17\t1.95499021526\n'
p1182
aS'1182\t28.02.2016 6:29:17\t1.95499021526\n'
p1183
aS'1183\t28.02.2016 6:39:17\t1.95499021526\n'
p1184
aS'1184\t28.02.2016 6:49:17\t1.95499021526\n'
p1185
aS'1185\t28.02.2016 6:59:17\t1.95499021526\n'
p1186
aS'1186\t28.02.2016 7:09:17\t1.95499021526\n'
p1187
aS'1187\t28.02.2016 7:19:17\t1.95499021526\n'
p1188
aS'1188\t28.02.2016 7:29:17\t1.95499021526\n'
p1189
aS'1189\t28.02.2016 7:39:17\t1.95499021526\n'
p1190
aS'1190\t28.02.2016 7:49:17\t1.95499021526\n'
p1191
aS'1191\t28.02.2016 7:59:17\t1.95499021526\n'
p1192
aS'1192\t28.02.2016 8:09:17\t1.95499021526\n'
p1193
aS'1193\t28.02.2016 8:19:17\t1.95499021526\n'
p1194
aS'1194\t28.02.2016 8:29:17\t1.95499021526\n'
p1195
aS'1195\t28.02.2016 8:39:17\t1.95499021526\n'
p1196
aS'1196\t28.02.2016 8:49:17\t1.95499021526\n'
p1197
aS'1197\t28.02.2016 8:59:17\t1.91976516634\n'
p1198
aS'1198\t28.02.2016 9:09:17\t1.91976516634\n'
p1199
aS'1199\t28.02.2016 9:19:16\t1.91976516634\n'
p1200
aS'1200\t28.02.2016 9:29:17\t1.91976516634\n'
p1201
aS'1201\t28.02.2016 9:39:17\t1.91976516634\n'
p1202
aS'1202\t28.02.2016 9:49:16\t1.91976516634\n'
p1203
aS'1203\t28.02.2016 9:59:17\t1.91976516634\n'
p1204
aS'1204\t28.02.2016 10:09:17\t1.91976516634\n'
p1205
aS'1205\t28.02.2016 10:19:17\t1.91976516634\n'
p1206
aS'1206\t28.02.2016 10:29:17\t1.91976516634\n'
p1207
aS'1207\t28.02.2016 10:39:17\t1.91976516634\n'
p1208
aS'1208\t28.02.2016 10:49:17\t1.91976516634\n'
p1209
aS'1209\t28.02.2016 10:59:17\t1.91976516634\n'
p1210
aS'1210\t28.02.2016 11:09:17\t1.91976516634\n'
p1211
aS'1211\t28.02.2016 11:19:16\t1.91976516634\n'
p1212
aS'1212\t28.02.2016 11:29:16\t1.91976516634\n'
p1213
aS'1213\t28.02.2016 11:39:17\t1.91976516634\n'
p1214
aS'1214\t28.02.2016 11:49:16\t1.91976516634\n'
p1215
aS'1215\t28.02.2016 11:59:16\t1.91976516634\n'
p1216
aS'1216\t28.02.2016 12:09:16\t1.91976516634\n'
p1217
aS'1217\t28.02.2016 12:19:16\t1.91976516634\n'
p1218
aS'1218\t28.02.2016 12:29:16\t1.91976516634\n'
p1219
aS'1219\t28.02.2016 12:39:16\t1.91976516634\n'
p1220
aS'1220\t28.02.2016 12:49:16\t1.91976516634\n'
p1221
aS'1221\t28.02.2016 12:59:16\t1.91976516634\n'
p1222
aS'1222\t28.02.2016 13:09:16\t1.91976516634\n'
p1223
aS'1223\t28.02.2016 13:19:16\t1.91976516634\n'
p1224
aS'1224\t28.02.2016 13:29:16\t1.91976516634\n'
p1225
aS'1225\t28.02.2016 13:39:16\t1.91976516634\n'
p1226
aS'1226\t28.02.2016 13:49:16\t1.91976516634\n'
p1227
aS'1227\t28.02.2016 13:59:16\t1.91976516634\n'
p1228
aS'1228\t28.02.2016 14:09:16\t1.91976516634\n'
p1229
aS'1229\t28.02.2016 14:19:16\t1.91976516634\n'
p1230
aS'1230\t28.02.2016 14:29:16\t1.91976516634\n'
p1231
aS'1231\t28.02.2016 14:39:16\t1.91976516634\n'
p1232
aS'1232\t28.02.2016 14:49:16\t1.91976516634\n'
p1233
aS'1233\t28.02.2016 14:59:16\t1.91976516634\n'
p1234
aS'1234\t28.02.2016 15:09:16\t1.91976516634\n'
p1235
aS'1235\t28.02.2016 15:19:16\t1.91976516634\n'
p1236
aS'1236\t28.02.2016 15:29:16\t1.91976516634\n'
p1237
aS'1237\t28.02.2016 15:39:16\t1.91976516634\n'
p1238
aS'1238\t28.02.2016 15:49:16\t1.91976516634\n'
p1239
aS'1239\t28.02.2016 15:59:16\t1.91976516634\n'
p1240
aS'1240\t28.02.2016 16:09:16\t1.91976516634\n'
p1241
aS'1241\t28.02.2016 16:19:16\t1.91976516634\n'
p1242
aS'1242\t28.02.2016 16:29:16\t1.91976516634\n'
p1243
aS'1243\t28.02.2016 16:39:16\t1.88454011742\n'
p1244
aS'1244\t28.02.2016 16:49:15\t1.88454011742\n'
p1245
aS'1245\t28.02.2016 16:59:15\t1.88454011742\n'
p1246
aS'1246\t28.02.2016 17:09:15\t1.88454011742\n'
p1247
aS'1247\t28.02.2016 17:19:15\t1.88454011742\n'
p1248
aS'1248\t28.02.2016 17:29:15\t1.88454011742\n'
p1249
aS'1249\t28.02.2016 17:39:15\t1.88454011742\n'
p1250
aS'1250\t28.02.2016 17:49:15\t1.88454011742\n'
p1251
aS'1251\t28.02.2016 17:59:15\t1.88454011742\n'
p1252
aS'1252\t28.02.2016 18:09:15\t1.88454011742\n'
p1253
aS'1253\t28.02.2016 18:19:15\t1.88454011742\n'
p1254
aS'1254\t28.02.2016 18:29:15\t1.88454011742\n'
p1255
aS'1255\t28.02.2016 18:39:15\t1.88454011742\n'
p1256
aS'1256\t28.02.2016 18:49:15\t1.88454011742\n'
p1257
aS'1257\t28.02.2016 18:59:15\t1.88454011742\n'
p1258
aS'1258\t28.02.2016 19:09:15\t1.88454011742\n'
p1259
aS'1259\t28.02.2016 19:19:15\t1.88454011742\n'
p1260
aS'1260\t28.02.2016 19:29:15\t1.88454011742\n'
p1261
aS'1261\t28.02.2016 19:39:15\t1.88454011742\n'
p1262
aS'1262\t28.02.2016 19:49:15\t1.88454011742\n'
p1263
aS'1263\t28.02.2016 19:59:15\t1.88454011742\n'
p1264
aS'1264\t28.02.2016 20:09:15\t1.88454011742\n'
p1265
aS'1265\t28.02.2016 20:19:15\t1.88454011742\n'
p1266
aS'1266\t28.02.2016 20:29:15\t1.88454011742\n'
p1267
aS'1267\t28.02.2016 20:39:15\t1.88454011742\n'
p1268
aS'1268\t28.02.2016 20:49:15\t1.88454011742\n'
p1269
aS'1269\t28.02.2016 20:59:15\t1.88454011742\n'
p1270
aS'1270\t28.02.2016 21:09:15\t1.88454011742\n'
p1271
aS'1271\t28.02.2016 21:19:15\t1.88454011742\n'
p1272
aS'1272\t28.02.2016 21:29:15\t1.88454011742\n'
p1273
aS'1273\t28.02.2016 21:39:15\t1.88454011742\n'
p1274
aS'1274\t28.02.2016 21:49:15\t1.88454011742\n'
p1275
aS'1275\t28.02.2016 21:59:15\t1.88454011742\n'
p1276
aS'1276\t28.02.2016 22:09:15\t1.88454011742\n'
p1277
aS'1277\t28.02.2016 22:19:15\t1.88454011742\n'
p1278
aS'1278\t28.02.2016 22:29:15\t1.88454011742\n'
p1279
aS'1279\t28.02.2016 22:39:15\t1.88454011742\n'
p1280
aS'1280\t28.02.2016 22:49:15\t1.88454011742\n'
p1281
aS'1281\t28.02.2016 22:59:15\t1.88454011742\n'
p1282
aS'1282\t28.02.2016 23:09:15\t1.88454011742\n'
p1283
aS'1283\t28.02.2016 23:19:15\t1.88454011742\n'
p1284
aS'1284\t28.02.2016 23:29:15\t1.88454011742\n'
p1285
aS'1285\t28.02.2016 23:39:15\t1.88454011742\n'
p1286
aS'1286\t28.02.2016 23:49:15\t1.88454011742\n'
p1287
aS'1287\t28.02.2016 23:59:14\t1.88454011742\n'
p1288
aS'1288\t29.02.2016 0:09:14\t1.88454011742\n'
p1289
aS'1289\t29.02.2016 0:19:14\t1.88454011742\n'
p1290
aS'1290\t29.02.2016 0:29:15\t1.88454011742\n'
p1291
aS'1291\t29.02.2016 0:39:14\t1.88454011742\n'
p1292
aS'1292\t29.02.2016 0:49:14\t1.88454011742\n'
p1293
aS'1293\t29.02.2016 0:59:14\t1.88454011742\n'
p1294
aS'1294\t29.02.2016 1:09:14\t1.88454011742\n'
p1295
aS'1295\t29.02.2016 1:19:14\t1.88454011742\n'
p1296
aS'1296\t29.02.2016 1:29:14\t1.88454011742\n'
p1297
aS'1297\t29.02.2016 1:39:14\t1.88454011742\n'
p1298
aS'1298\t29.02.2016 1:49:14\t1.88454011742\n'
p1299
aS'1299\t29.02.2016 1:59:14\t1.88454011742\n'
p1300
aS'1300\t29.02.2016 2:09:14\t1.88454011742\n'
p1301
aS'1301\t29.02.2016 2:19:14\t1.88454011742\n'
p1302
aS'1302\t29.02.2016 2:29:14\t1.88454011742\n'
p1303
aS'1303\t29.02.2016 2:39:14\t1.88454011742\n'
p1304
aS'1304\t29.02.2016 2:49:14\t1.88454011742\n'
p1305
aS'1305\t29.02.2016 2:59:14\t1.88454011742\n'
p1306
aS'1306\t29.02.2016 3:09:14\t1.88454011742\n'
p1307
aS'1307\t29.02.2016 3:19:14\t1.88454011742\n'
p1308
aS'1308\t29.02.2016 3:29:14\t1.88454011742\n'
p1309
aS'1309\t29.02.2016 3:39:14\t1.88454011742\n'
p1310
aS'1310\t29.02.2016 3:49:14\t1.88454011742\n'
p1311
aS'1311\t29.02.2016 3:59:14\t1.88454011742\n'
p1312
aS'1312\t29.02.2016 4:09:14\t1.88454011742\n'
p1313
aS'1313\t29.02.2016 4:19:14\t1.88454011742\n'
p1314
aS'1314\t29.02.2016 4:29:14\t1.88454011742\n'
p1315
aS'1315\t29.02.2016 4:39:14\t1.88454011742\n'
p1316
aS'1316\t29.02.2016 4:49:14\t1.88454011742\n'
p1317
aS'1317\t29.02.2016 4:59:14\t1.88454011742\n'
p1318
aS'1318\t29.02.2016 5:09:14\t1.88454011742\n'
p1319
aS'1319\t29.02.2016 5:19:14\t1.88454011742\n'
p1320
aS'1320\t29.02.2016 5:29:14\t1.88454011742\n'
p1321
aS'1321\t29.02.2016 5:39:14\t1.88454011742\n'
p1322
aS'1322\t29.02.2016 5:49:14\t1.88454011742\n'
p1323
aS'1323\t29.02.2016 5:59:14\t1.88454011742\n'
p1324
aS'1324\t29.02.2016 6:09:13\t1.88454011742\n'
p1325
aS'1325\t29.02.2016 6:19:14\t1.88454011742\n'
p1326
aS'1326\t29.02.2016 6:29:14\t1.88454011742\n'
p1327
aS'1327\t29.02.2016 6:39:14\t1.88454011742\n'
p1328
aS'1328\t29.02.2016 6:49:14\t1.88454011742\n'
p1329
aS'1329\t29.02.2016 6:59:13\t1.88454011742\n'
p1330
aS'1330\t29.02.2016 7:09:13\t1.88454011742\n'
p1331
aS'1331\t29.02.2016 7:19:13\t1.88454011742\n'
p1332
aS'1332\t29.02.2016 7:29:13\t1.88454011742\n'
p1333
aS'1333\t29.02.2016 7:39:13\t1.88454011742\n'
p1334
aS'1334\t29.02.2016 7:49:13\t1.88454011742\n'
p1335
aS'1335\t29.02.2016 7:59:13\t1.88454011742\n'
p1336
aS'1336\t29.02.2016 8:09:13\t1.88454011742\n'
p1337
aS'1337\t29.02.2016 8:19:13\t1.88454011742\n'
p1338
aS'1338\t29.02.2016 8:29:13\t1.88454011742\n'
p1339
aS'1339\t29.02.2016 8:39:13\t1.88454011742\n'
p1340
aS'1340\t29.02.2016 8:49:13\t1.88454011742\n'
p1341
aS'1341\t29.02.2016 8:59:13\t1.88454011742\n'
p1342
aS'1342\t29.02.2016 9:09:13\t1.88454011742\n'
p1343
aS'1343\t29.02.2016 9:19:13\t1.88454011742\n'
p1344
aS'1344\t29.02.2016 9:29:13\t1.88454011742\n'
p1345
aS'1345\t29.02.2016 9:39:13\t1.88454011742\n'
p1346
aS'1346\t29.02.2016 9:49:13\t1.88454011742\n'
p1347
aS'1347\t29.02.2016 9:59:13\t1.88454011742\n'
p1348
aS'1348\t29.02.2016 10:09:13\t1.88454011742\n'
p1349
aS'1349\t29.02.2016 10:19:13\t1.88454011742\n'
p1350
aS'1350\t29.02.2016 10:29:13\t1.88454011742\n'
p1351
aS'1351\t29.02.2016 10:39:13\t1.88454011742\n'
p1352
aS'1352\t29.02.2016 10:49:18\t1.88454011742\n'
p1353
aS'1353\t29.02.2016 10:59:15\t1.88454011742\n'
p1354
aS'1354\t29.02.2016 11:09:13\t1.88454011742\n'
p1355
aS'1355\t29.02.2016 11:19:13\t1.88454011742\n'
p1356
aS'1356\t29.02.2016 11:29:13\t1.88454011742\n'
p1357
aS'1357\t29.02.2016 11:39:13\t1.88454011742\n'
p1358
aS'1358\t29.02.2016 11:49:13\t1.88454011742\n'
p1359
aS'1359\t29.02.2016 11:59:13\t1.88454011742\n'
p1360
aS'1360\t29.02.2016 12:09:13\t1.88454011742\n'
p1361
aS'1361\t29.02.2016 12:19:12\t1.88454011742\n'
p1362
aS'1362\t29.02.2016 12:29:13\t1.88454011742\n'
p1363
aS'1363\t29.02.2016 12:39:12\t1.88454011742\n'
p1364
aS'1364\t29.02.2016 12:49:12\t1.88454011742\n'
p1365
aS'1365\t29.02.2016 12:59:12\t1.91976516634\n'
p1366
aS'1366\t29.02.2016 13:09:12\t1.91976516634\n'
p1367
aS'1367\t29.02.2016 13:19:12\t1.91976516634\n'
p1368
aS'1368\t29.02.2016 13:29:12\t1.91976516634\n'
p1369
aS'1369\t29.02.2016 13:39:13\t1.91976516634\n'
p1370
aS'1370\t29.02.2016 13:49:12\t1.91976516634\n'
p1371
aS'1371\t29.02.2016 13:59:12\t1.91976516634\n'
p1372
aS'1372\t29.02.2016 14:09:12\t1.91976516634\n'
p1373
aS'1373\t29.02.2016 14:19:12\t1.91976516634\n'
p1374
aS'1374\t29.02.2016 14:29:12\t1.91976516634\n'
p1375
aS'1375\t29.02.2016 14:39:12\t1.91976516634\n'
p1376
aS'1376\t29.02.2016 14:49:12\t1.91976516634\n'
p1377
aS'1377\t29.02.2016 14:59:12\t1.91976516634\n'
p1378
aS'1378\t29.02.2016 15:09:12\t1.91976516634\n'
p1379
aS'1379\t29.02.2016 15:19:12\t1.91976516634\n'
p1380
aS'1380\t29.02.2016 15:29:12\t1.91976516634\n'
p1381
aS'1381\t29.02.2016 15:39:12\t1.91976516634\n'
p1382
aS'1382\t29.02.2016 15:49:12\t1.91976516634\n'
p1383
aS'1383\t29.02.2016 15:59:12\t1.91976516634\n'
p1384
aS'1384\t29.02.2016 16:09:12\t1.91976516634\n'
p1385
aS'1385\t29.02.2016 16:19:12\t1.91976516634\n'
p1386
aS'1386\t29.02.2016 16:29:12\t1.91976516634\n'
p1387
aS'1387\t29.02.2016 16:39:12\t1.91976516634\n'
p1388
aS'1388\t29.02.2016 16:49:12\t1.91976516634\n'
p1389
aS'1389\t29.02.2016 16:59:12\t1.91976516634\n'
p1390
aS'1390\t29.02.2016 17:09:12\t1.91976516634\n'
p1391
aS'1391\t29.02.2016 17:19:12\t1.91976516634\n'
p1392
aS'1392\t29.02.2016 17:29:12\t1.91976516634\n'
p1393
aS'1393\t29.02.2016 17:39:12\t1.91976516634\n'
p1394
aS'1394\t29.02.2016 17:49:12\t1.91976516634\n'
p1395
aS'1395\t29.02.2016 17:59:12\t1.91976516634\n'
p1396
aS'1396\t29.02.2016 18:09:12\t1.91976516634\n'
p1397
aS'1397\t29.02.2016 18:19:12\t1.91976516634\n'
p1398
aS'1398\t29.02.2016 18:29:12\t1.91976516634\n'
p1399
aS'1399\t29.02.2016 18:39:12\t1.91976516634\n'
p1400
aS'1400\t29.02.2016 18:49:12\t1.91976516634\n'
p1401
aS'1401\t29.02.2016 18:59:11\t1.91976516634\n'
p1402
aS'1402\t29.02.2016 19:09:11\t1.91976516634\n'
p1403
aS'1403\t29.02.2016 19:19:11\t1.91976516634\n'
p1404
aS'1404\t29.02.2016 19:29:11\t1.91976516634\n'
p1405
aS'1405\t29.02.2016 19:39:11\t1.91976516634\n'
p1406
aS'1406\t29.02.2016 19:49:11\t1.91976516634\n'
p1407
aS'1407\t29.02.2016 19:59:11\t1.91976516634\n'
p1408
aS'1408\t29.02.2016 20:09:11\t1.91976516634\n'
p1409
aS'1409\t29.02.2016 20:19:11\t1.91976516634\n'
p1410
aS'1410\t29.02.2016 20:29:11\t1.91976516634\n'
p1411
aS'1411\t29.02.2016 20:39:11\t1.91976516634\n'
p1412
aS'1412\t29.02.2016 20:49:11\t1.91976516634\n'
p1413
aS'1413\t29.02.2016 20:59:11\t1.91976516634\n'
p1414
aS'1414\t29.02.2016 21:09:11\t1.91976516634\n'
p1415
aS'1415\t29.02.2016 21:19:11\t1.91976516634\n'
p1416
aS'1416\t29.02.2016 21:29:11\t1.91976516634\n'
p1417
aS'1417\t29.02.2016 21:39:11\t1.91976516634\n'
p1418
aS'1418\t29.02.2016 21:49:11\t1.91976516634\n'
p1419
aS'1419\t29.02.2016 21:59:11\t1.91976516634\n'
p1420
aS'1420\t29.02.2016 22:09:11\t1.91976516634\n'
p1421
aS'1421\t29.02.2016 22:19:11\t1.91976516634\n'
p1422
aS'1422\t29.02.2016 22:29:11\t1.91976516634\n'
p1423
aS'1423\t29.02.2016 22:39:11\t1.91976516634\n'
p1424
aS'1424\t29.02.2016 22:49:11\t1.91976516634\n'
p1425
aS'1425\t29.02.2016 22:59:11\t1.91976516634\n'
p1426
aS'1426\t29.02.2016 23:09:11\t1.91976516634\n'
p1427
aS'1427\t29.02.2016 23:19:11\t1.91976516634\n'
p1428
aS'1428\t29.02.2016 23:29:11\t1.91976516634\n'
p1429
aS'1429\t29.02.2016 23:39:14\t1.91976516634\n'
p1430
aS'1430\t29.02.2016 23:49:11\t1.91976516634\n'
p1431
aS'1431\t29.02.2016 23:59:11\t1.91976516634\n'
p1432
a.