(lp0
S'Target cell[DKV] 36-43\n'
p1
aS'1\t21.01.2016 0:01:03\t0.0382165605096\n'
p2
aS'2\t21.01.2016 0:11:03\t0.0382165605096\n'
p3
aS'3\t21.01.2016 0:21:03\t0.0382165605096\n'
p4
aS'4\t21.01.2016 0:30:03\t0.0382165605096\n'
p5
aS'5\t21.01.2016 0:41:03\t0.0351437699681\n'
p6
aS'6\t21.01.2016 0:51:03\t0.0285714285714\n'
p7
aS'7\t21.01.2016 1:01:03\t0.0351437699681\n'
p8
aS'8\t21.01.2016 1:11:03\t0.0287539936102\n'
p9
aS'9\t21.01.2016 1:21:03\t0.0287539936102\n'
p10
aS'10\t21.01.2016 1:31:03\t0.0254777070064\n'
p11
aS'11\t21.01.2016 1:41:03\t0.025641025641\n'
p12
aS'12\t21.01.2016 1:51:03\t0.0223642172524\n'
p13
aS'13\t21.01.2016 2:01:03\t0.025641025641\n'
p14
aS'14\t21.01.2016 2:11:03\t0.025641025641\n'
p15
aS'15\t21.01.2016 2:21:03\t0.0225080385852\n'
p16
aS'16\t21.01.2016 2:31:03\t0.025641025641\n'
p17
aS'17\t21.01.2016 2:41:03\t0.025641025641\n'
p18
aS'18\t21.01.2016 2:51:03\t0.0223642172524\n'
p19
aS'19\t21.01.2016 3:01:03\t0.0191082802548\n'
p20
aS'20\t21.01.2016 3:11:03\t0.0191082802548\n'
p21
aS'21\t21.01.2016 3:21:03\t0.016077170418\n'
p22
aS'22\t21.01.2016 3:31:03\t0.0128205128205\n'
p23
aS'23\t21.01.2016 3:41:03\t0.0128205128205\n'
p24
aS'24\t21.01.2016 3:51:03\t0.016077170418\n'
p25
aS'25\t21.01.2016 4:01:03\t0.016077170418\n'
p26
aS'26\t21.01.2016 4:11:03\t0.016077170418\n'
p27
aS'27\t21.01.2016 4:21:03\t0.016077170418\n'
p28
aS'28\t21.01.2016 4:31:03\t0.00970873786408\n'
p29
aS'29\t21.01.2016 4:41:03\t0.0129032258065\n'
p30
aS'30\t21.01.2016 4:51:03\t0.00958466453674\n'
p31
aS'31\t21.01.2016 5:01:03\t0.0128205128205\n'
p32
aS'32\t21.01.2016 5:11:03\t0.016077170418\n'
p33
aS'33\t21.01.2016 5:21:03\t0.016077170418\n'
p34
aS'34\t21.01.2016 5:31:03\t0.016077170418\n'
p35
aS'35\t21.01.2016 5:41:03\t0.016077170418\n'
p36
aS'36\t21.01.2016 5:51:03\t0.016077170418\n'
p37
aS'37\t21.01.2016 6:01:03\t0.016077170418\n'
p38
aS'38\t21.01.2016 6:11:02\t0.016077170418\n'
p39
aS'39\t21.01.2016 6:21:03\t0.016077170418\n'
p40
aS'40\t21.01.2016 6:31:03\t0.0223642172524\n'
p41
aS'41\t21.01.2016 6:41:03\t0.0225080385852\n'
p42
aS'42\t21.01.2016 6:51:03\t0.0193548387097\n'
p43
aS'43\t21.01.2016 7:01:03\t0.0225080385852\n'
p44
aS'44\t21.01.2016 7:11:02\t0.0226537216828\n'
p45
aS'45\t21.01.2016 7:21:02\t0.025641025641\n'
p46
aS'46\t21.01.2016 7:31:02\t0.025641025641\n'
p47
aS'47\t21.01.2016 7:41:02\t0.0258064516129\n'
p48
aS'48\t21.01.2016 7:51:02\t0.0289389067524\n'
p49
aS'49\t21.01.2016 8:01:02\t0.0289389067524\n'
p50
aS'50\t21.01.2016 8:11:02\t0.0322580645161\n'
p51
aS'51\t21.01.2016 8:21:02\t0.0353697749196\n'
p52
aS'52\t21.01.2016 8:31:02\t0.0353697749196\n'
p53
aS'53\t21.01.2016 8:41:02\t0.0353697749196\n'
p54
aS'54\t21.01.2016 8:51:02\t0.0353697749196\n'
p55
aS'55\t21.01.2016 9:01:02\t0.0415335463259\n'
p56
aS'56\t21.01.2016 9:11:02\t0.0415335463259\n'
p57
aS'57\t21.01.2016 9:21:02\t0.0415335463259\n'
p58
aS'58\t21.01.2016 9:31:02\t0.0415335463259\n'
p59
aS'59\t21.01.2016 9:41:02\t0.0415335463259\n'
p60
aS'60\t21.01.2016 9:51:02\t0.0479233226837\n'
p61
aS'61\t21.01.2016 10:01:02\t0.0479233226837\n'
p62
aS'62\t21.01.2016 10:11:02\t0.0479233226837\n'
p63
aS'63\t21.01.2016 10:21:02\t0.0479233226837\n'
p64
aS'64\t21.01.2016 10:31:02\t0.0509554140127\n'
p65
aS'65\t21.01.2016 10:41:02\t0.0539682539683\n'
p66
aS'66\t21.01.2016 10:51:02\t0.0573248407643\n'
p67
aS'67\t21.01.2016 11:01:02\t0.0607028753994\n'
p68
aS'68\t21.01.2016 11:11:01\t0.0607028753994\n'
p69
aS'69\t21.01.2016 11:19:02\t0.0607028753994\n'
p70
aS'70\t21.01.2016 11:30:01\t0.0641025641026\n'
p71
aS'71\t21.01.2016 11:40:01\t0.0641025641026\n'
p72
aS'72\t21.01.2016 11:50:01\t0.0670926517572\n'
p73
aS'73\t21.01.2016 12:00:01\t0.0670926517572\n'
p74
aS'74\t21.01.2016 12:10:01\t0.0700636942675\n'
p75
aS'75\t21.01.2016 12:20:01\t0.0700636942675\n'
p76
aS'76\t21.01.2016 12:30:01\t0.0739549839228\n'
p77
aS'77\t21.01.2016 12:40:02\t0.0739549839228\n'
p78
aS'78\t21.01.2016 12:50:02\t0.0769230769231\n'
p79
aS'79\t21.01.2016 13:00:02\t0.0774193548387\n'
p80
aS'80\t21.01.2016 13:10:02\t0.0774193548387\n'
p81
aS'81\t21.01.2016 13:20:02\t0.08038585209\n'
p82
aS'82\t21.01.2016 13:30:02\t0.0868167202572\n'
p83
aS'83\t21.01.2016 13:40:02\t0.0903225806452\n'
p84
aS'84\t21.01.2016 13:50:02\t0.0903225806452\n'
p85
aS'85\t21.01.2016 14:00:02\t0.0903225806452\n'
p86
aS'86\t21.01.2016 14:10:02\t0.0944625407166\n'
p87
aS'87\t21.01.2016 14:20:02\t0.0967741935484\n'
p88
aS'88\t21.01.2016 14:30:02\t0.0967741935484\n'
p89
aS'89\t21.01.2016 14:40:03\t0.100323624595\n'
p90
aS'90\t21.01.2016 14:50:03\t0.109677419355\n'
p91
aS'91\t21.01.2016 15:00:03\t0.109677419355\n'
p92
aS'92\t21.01.2016 15:10:03\t0.109677419355\n'
p93
aS'93\t21.01.2016 15:20:03\t0.109677419355\n'
p94
aS'94\t21.01.2016 15:30:03\t0.109677419355\n'
p95
aS'95\t21.01.2016 15:40:03\t0.109677419355\n'
p96
aS'96\t21.01.2016 15:50:03\t0.113268608414\n'
p97
aS'97\t21.01.2016 16:00:04\t0.112540192926\n'
p98
aS'98\t21.01.2016 16:10:04\t0.109677419355\n'
p99
aS'99\t21.01.2016 16:20:04\t0.0961538461538\n'
p100
aS'100\t21.01.2016 16:30:04\t0.0932475884244\n'
p101
aS'101\t21.01.2016 16:40:04\t0.0903225806452\n'
p102
aS'102\t21.01.2016 16:50:04\t0.0833333333333\n'
p103
aS'103\t21.01.2016 17:00:05\t0.0833333333333\n'
p104
aS'104\t21.01.2016 17:10:05\t0.08038585209\n'
p105
aS'105\t21.01.2016 17:20:05\t0.08038585209\n'
p106
aS'106\t21.01.2016 17:30:05\t0.08038585209\n'
p107
aS'107\t21.01.2016 17:40:05\t0.0769230769231\n'
p108
aS'108\t21.01.2016 17:50:05\t0.0739549839228\n'
p109
aS'109\t21.01.2016 18:00:05\t0.0709677419355\n'
p110
aS'110\t21.01.2016 18:10:06\t0.058064516129\n'
p111
aS'111\t21.01.2016 18:20:06\t0.0516129032258\n'
p112
aS'112\t21.01.2016 18:30:06\t0.048231511254\n'
p113
aS'113\t21.01.2016 18:40:06\t0.0418006430868\n'
p114
aS'114\t21.01.2016 18:50:06\t0.0384615384615\n'
p115
aS'115\t21.01.2016 19:00:06\t0.0384615384615\n'
p116
aS'116\t21.01.2016 19:10:06\t0.0289389067524\n'
p117
aS'117\t21.01.2016 19:20:07\t0.0289389067524\n'
p118
aS'118\t21.01.2016 19:30:07\t0.0223642172524\n'
p119
aS'119\t21.01.2016 19:40:07\t0.016077170418\n'
p120
aS'120\t21.01.2016 19:50:07\t0.016077170418\n'
p121
aS'121\t21.01.2016 20:00:07\t0.00964630225081\n'
p122
aS'122\t21.01.2016 20:10:07\t0.00645161290323\n'
p123
aS'123\t21.01.2016 20:20:08\t0.00964630225081\n'
p124
aS'124\t21.01.2016 20:30:08\t0.00319488817891\n'
p125
aS'125\t21.01.2016 20:40:08\t-0.0032154340836\n'
p126
aS'126\t21.01.2016 20:50:08\t-0.0032154340836\n'
p127
aS'127\t21.01.2016 21:00:08\t-0.0032154340836\n'
p128
aS'128\t21.01.2016 21:10:08\t-0.0032154340836\n'
p129
aS'129\t21.01.2016 21:20:09\t-0.00641025641026\n'
p130
aS'130\t21.01.2016 21:30:09\t-0.00641025641026\n'
p131
aS'131\t21.01.2016 21:40:09\t-0.0159744408946\n'
p132
aS'132\t21.01.2016 21:50:09\t-0.0096463022508\n'
p133
aS'133\t21.01.2016 22:00:10\t-0.0159744408946\n'
p134
aS'134\t21.01.2016 22:10:10\t-0.0192307692308\n'
p135
aS'135\t21.01.2016 22:20:10\t-0.0159744408946\n'
p136
aS'136\t21.01.2016 22:30:10\t-0.0192307692308\n'
p137
aS'137\t21.01.2016 22:40:10\t-0.0223642172524\n'
p138
aS'138\t21.01.2016 22:50:10\t-0.025641025641\n'
p139
aS'139\t21.01.2016 23:00:10\t-0.025641025641\n'
p140
aS'140\t21.01.2016 23:10:11\t-0.025641025641\n'
p141
aS'141\t21.01.2016 23:20:11\t-0.025641025641\n'
p142
aS'142\t21.01.2016 23:30:11\t-0.025641025641\n'
p143
aS'143\t21.01.2016 23:40:11\t-0.025641025641\n'
p144
aS'144\t21.01.2016 23:50:11\t-0.025641025641\n'
p145
aS'145\t22.01.2016 0:00:11\t-0.025641025641\n'
p146
aS'146\t22.01.2016 0:10:11\t-0.0289389067524\n'
p147
aS'147\t22.01.2016 0:20:12\t-0.0353697749196\n'
p148
aS'148\t22.01.2016 0:30:12\t-0.0418006430868\n'
p149
aS'149\t22.01.2016 0:40:12\t-0.0418006430868\n'
p150
aS'150\t22.01.2016 0:50:12\t-0.0448717948718\n'
p151
aS'151\t22.01.2016 1:00:12\t-0.0448717948718\n'
p152
aS'152\t22.01.2016 1:10:12\t-0.0448717948718\n'
p153
aS'153\t22.01.2016 1:20:12\t-0.0509554140127\n'
p154
aS'154\t22.01.2016 1:30:13\t-0.0448717948718\n'
p155
aS'155\t22.01.2016 1:40:13\t-0.0382165605096\n'
p156
aS'156\t22.01.2016 1:50:13\t-0.0382165605096\n'
p157
aS'157\t22.01.2016 2:00:13\t-0.0412698412698\n'
p158
aS'158\t22.01.2016 2:10:13\t-0.0382165605096\n'
p159
aS'159\t22.01.2016 2:20:13\t-0.035143769968\n'
p160
aS'160\t22.01.2016 2:30:14\t-0.035143769968\n'
p161
aS'161\t22.01.2016 2:40:14\t-0.031847133758\n'
p162
aS'162\t22.01.2016 2:50:14\t-0.0287539936102\n'
p163
aS'163\t22.01.2016 3:00:14\t-0.025641025641\n'
p164
aS'164\t22.01.2016 3:10:14\t-0.025641025641\n'
p165
aS'165\t22.01.2016 3:20:14\t-0.025641025641\n'
p166
aS'166\t22.01.2016 3:30:14\t-0.025641025641\n'
p167
aS'167\t22.01.2016 3:40:15\t-0.0225080385852\n'
p168
aS'168\t22.01.2016 3:50:15\t-0.0225080385852\n'
p169
aS'169\t22.01.2016 4:00:15\t-0.0192307692308\n'
p170
aS'170\t22.01.2016 4:10:15\t-0.0159744408946\n'
p171
aS'171\t22.01.2016 4:20:15\t-0.0192307692308\n'
p172
aS'172\t22.01.2016 4:30:15\t-0.0129032258065\n'
p173
aS'173\t22.01.2016 4:40:15\t-0.0096463022508\n'
p174
aS'174\t22.01.2016 4:50:16\t-0.00641025641026\n'
p175
aS'175\t22.01.2016 5:00:16\t-0.00641025641026\n'
p176
aS'176\t22.01.2016 5:10:16\t-0.0032154340836\n'
p177
aS'177\t22.01.2016 5:20:16\t3.66015461667e-17\n'
p178
aS'178\t22.01.2016 5:30:16\t0.00323624595469\n'
p179
aS'179\t22.01.2016 5:40:16\t0.00645161290323\n'
p180
aS'180\t22.01.2016 5:50:16\t0.016077170418\n'
p181
aS'181\t22.01.2016 6:00:17\t0.016077170418\n'
p182
aS'182\t22.01.2016 6:10:17\t0.016077170418\n'
p183
aS'183\t22.01.2016 6:20:17\t0.0192307692308\n'
p184
aS'184\t22.01.2016 6:30:17\t0.0223642172524\n'
p185
aS'185\t22.01.2016 6:40:17\t0.0223642172524\n'
p186
aS'186\t22.01.2016 6:50:18\t0.0289389067524\n'
p187
aS'187\t22.01.2016 7:00:18\t0.0289389067524\n'
p188
aS'188\t22.01.2016 7:10:18\t0.0353697749196\n'
p189
aS'189\t22.01.2016 7:20:18\t0.0353697749196\n'
p190
aS'190\t22.01.2016 7:30:18\t0.0353697749196\n'
p191
aS'191\t22.01.2016 7:40:19\t0.0451612903226\n'
p192
aS'192\t22.01.2016 7:50:19\t0.048231511254\n'
p193
aS'193\t22.01.2016 8:00:19\t0.048231511254\n'
p194
aS'194\t22.01.2016 8:10:19\t0.0485436893204\n'
p195
aS'195\t22.01.2016 8:20:19\t0.0516129032258\n'
p196
aS'196\t22.01.2016 8:30:19\t0.058064516129\n'
p197
aS'197\t22.01.2016 8:40:19\t0.0614886731392\n'
p198
aS'198\t22.01.2016 8:50:20\t0.0614886731392\n'
p199
aS'199\t22.01.2016 9:00:20\t0.0679611650485\n'
p200
aS'200\t22.01.2016 9:10:20\t0.0709677419355\n'
p201
aS'201\t22.01.2016 9:20:20\t0.0779220779221\n'
p202
aS'202\t22.01.2016 9:30:20\t0.0809061488673\n'
p203
aS'203\t22.01.2016 9:40:20\t0.0844155844156\n'
p204
aS'204\t22.01.2016 9:50:21\t0.0873786407767\n'
p205
aS'205\t22.01.2016 10:00:21\t0.0974025974026\n'
p206
aS'206\t22.01.2016 10:10:21\t0.100323624595\n'
p207
aS'207\t22.01.2016 10:20:21\t0.106796116505\n'
p208
aS'208\t22.01.2016 10:30:21\t0.106796116505\n'
p209
aS'209\t22.01.2016 10:40:21\t0.103896103896\n'
p210
aS'210\t22.01.2016 10:50:21\t0.113268608414\n'
p211
aS'211\t22.01.2016 11:00:22\t0.116883116883\n'
p212
aS'212\t22.01.2016 11:10:22\t0.120521172638\n'
p213
aS'213\t22.01.2016 11:20:22\t0.120521172638\n'
p214
aS'214\t22.01.2016 11:30:22\t0.123376623377\n'
p215
aS'215\t22.01.2016 11:40:22\t0.130718954248\n'
p216
aS'216\t22.01.2016 11:50:22\t0.130718954248\n'
p217
aS'217\t22.01.2016 12:00:23\t0.130718954248\n'
p218
aS'218\t22.01.2016 12:10:23\t0.133550488599\n'
p219
aS'219\t22.01.2016 12:20:23\t0.133550488599\n'
p220
aS'220\t22.01.2016 12:30:23\t0.14006514658\n'
p221
aS'221\t22.01.2016 12:40:23\t0.140983606557\n'
p222
aS'222\t22.01.2016 12:50:23\t0.148514851485\n'
p223
aS'223\t22.01.2016 13:00:23\t0.148514851485\n'
p224
aS'224\t22.01.2016 13:10:24\t0.147540983607\n'
p225
aS'225\t22.01.2016 13:20:23\t0.155115511551\n'
p226
aS'226\t22.01.2016 13:30:24\t0.147540983607\n'
p227
aS'227\t22.01.2016 13:40:23\t0.155115511551\n'
p228
aS'228\t22.01.2016 13:50:23\t0.160655737705\n'
p229
aS'229\t22.01.2016 14:00:23\t0.154098360656\n'
p230
aS'230\t22.01.2016 14:10:23\t0.156862745098\n'
p231
aS'231\t22.01.2016 14:20:23\t0.159609120521\n'
p232
aS'232\t22.01.2016 14:30:23\t0.158940397351\n'
p233
aS'233\t22.01.2016 14:40:23\t0.160655737705\n'
p234
aS'234\t22.01.2016 14:50:24\t0.160655737705\n'
p235
aS'235\t22.01.2016 15:00:23\t0.164473684211\n'
p236
aS'236\t22.01.2016 15:10:23\t0.154362416107\n'
p237
aS'237\t22.01.2016 15:20:23\t0.157190635452\n'
p238
aS'238\t22.01.2016 15:30:23\t0.161716171617\n'
p239
aS'239\t22.01.2016 15:40:23\t0.161716171617\n'
p240
aS'240\t22.01.2016 15:50:23\t0.155115511551\n'
p241
aS'241\t22.01.2016 16:00:23\t0.151315789474\n'
p242
aS'242\t22.01.2016 16:10:23\t0.133550488599\n'
p243
aS'243\t22.01.2016 16:20:23\t0.133550488599\n'
p244
aS'244\t22.01.2016 16:30:23\t0.127868852459\n'
p245
aS'245\t22.01.2016 16:40:23\t0.127868852459\n'
p246
aS'246\t22.01.2016 16:50:23\t0.117647058824\n'
p247
aS'247\t22.01.2016 17:00:23\t0.117647058824\n'
p248
aS'248\t22.01.2016 17:10:23\t0.108196721311\n'
p249
aS'249\t22.01.2016 17:20:23\t0.111842105263\n'
p250
aS'250\t22.01.2016 17:30:23\t0.105263157895\n'
p251
aS'251\t22.01.2016 17:40:23\t0.0993377483444\n'
p252
aS'252\t22.01.2016 17:50:23\t0.0993377483444\n'
p253
aS'253\t22.01.2016 18:00:23\t0.112582781457\n'
p254
aS'254\t22.01.2016 18:10:23\t0.0921052631579\n'
p255
aS'255\t22.01.2016 18:20:23\t0.0891089108911\n'
p256
aS'256\t22.01.2016 18:30:23\t0.0855263157895\n'
p257
aS'257\t22.01.2016 18:40:23\t0.0855263157895\n'
p258
aS'258\t22.01.2016 18:50:23\t0.078431372549\n'
p259
aS'259\t22.01.2016 19:00:23\t0.0754098360656\n'
p260
aS'260\t22.01.2016 19:10:23\t0.0723684210526\n'
p261
aS'261\t22.01.2016 19:20:23\t0.0684039087948\n'
p262
aS'262\t22.01.2016 19:30:23\t0.0622950819672\n'
p263
aS'263\t22.01.2016 19:40:23\t0.0588235294118\n'
p264
aS'264\t22.01.2016 19:50:23\t0.055737704918\n'
p265
aS'265\t22.01.2016 20:00:23\t0.0488599348534\n'
p266
aS'266\t22.01.2016 20:10:23\t0.0392156862745\n'
p267
aS'267\t22.01.2016 20:20:23\t0.0392156862745\n'
p268
aS'268\t22.01.2016 20:30:22\t0.0326797385621\n'
p269
aS'269\t22.01.2016 20:40:22\t0.0293159609121\n'
p270
aS'270\t22.01.2016 20:50:23\t0.0196078431373\n'
p271
aS'271\t22.01.2016 21:00:22\t0.012987012987\n'
p272
aS'272\t22.01.2016 21:10:22\t0.00649350649351\n'
p273
aS'273\t22.01.2016 21:20:22\t-0.00323624595469\n'
p274
aS'274\t22.01.2016 21:30:22\t-0.012987012987\n'
p275
aS'275\t22.01.2016 21:40:22\t-0.0193548387097\n'
p276
aS'276\t22.01.2016 21:50:22\t-0.0291262135922\n'
p277
aS'277\t22.01.2016 22:00:22\t-0.0454545454545\n'
p278
aS'278\t22.01.2016 22:10:22\t-0.0358306188925\n'
p279
aS'279\t22.01.2016 22:20:22\t-0.0454545454545\n'
p280
aS'280\t22.01.2016 22:30:22\t-0.0485436893204\n'
p281
aS'281\t22.01.2016 22:40:22\t-0.0485436893204\n'
p282
aS'282\t22.01.2016 22:50:22\t-0.0519480519481\n'
p283
aS'283\t22.01.2016 23:00:22\t-0.058064516129\n'
p284
aS'284\t22.01.2016 23:10:22\t-0.0645161290323\n'
p285
aS'285\t22.01.2016 23:20:22\t-0.0679611650485\n'
p286
aS'286\t22.01.2016 23:30:22\t-0.0739549839228\n'
p287
aS'287\t22.01.2016 23:40:22\t-0.08038585209\n'
p288
aS'288\t22.01.2016 23:50:22\t-0.0873786407767\n'
p289
aS'289\t23.01.2016 0:00:22\t-0.0932475884244\n'
p290
aS'290\t23.01.2016 0:10:22\t-0.0932475884244\n'
p291
aS'291\t23.01.2016 0:20:22\t-0.0932475884244\n'
p292
aS'292\t23.01.2016 0:30:22\t-0.0862619808307\n'
p293
aS'293\t23.01.2016 0:40:22\t-0.0897435897436\n'
p294
aS'294\t23.01.2016 0:50:22\t-0.0926517571885\n'
p295
aS'295\t23.01.2016 1:00:22\t-0.0897435897436\n'
p296
aS'296\t23.01.2016 1:10:22\t-0.0926517571885\n'
p297
aS'297\t23.01.2016 1:20:22\t-0.0932475884244\n'
p298
aS'298\t23.01.2016 1:30:22\t-0.0926517571885\n'
p299
aS'299\t23.01.2016 1:40:22\t-0.0961538461538\n'
p300
aS'300\t23.01.2016 1:50:22\t-0.0955414012739\n'
p301
aS'301\t23.01.2016 2:00:22\t-0.0926517571885\n'
p302
aS'302\t23.01.2016 2:10:22\t-0.0926517571885\n'
p303
aS'303\t23.01.2016 2:20:22\t-0.0926517571885\n'
p304
aS'304\t23.01.2016 2:30:22\t-0.0932475884244\n'
p305
aS'305\t23.01.2016 2:40:22\t-0.0897435897436\n'
p306
aS'306\t23.01.2016 2:50:22\t-0.0932475884244\n'
p307
aS'307\t23.01.2016 3:00:22\t-0.0897435897436\n'
p308
aS'308\t23.01.2016 3:10:22\t-0.0903225806452\n'
p309
aS'309\t23.01.2016 3:20:21\t-0.0897435897436\n'
p310
aS'310\t23.01.2016 3:30:21\t-0.0897435897436\n'
p311
aS'311\t23.01.2016 3:40:22\t-0.0868167202572\n'
p312
aS'312\t23.01.2016 3:50:21\t-0.0833333333333\n'
p313
aS'313\t23.01.2016 4:00:21\t-0.0833333333333\n'
p314
aS'314\t23.01.2016 4:10:21\t-0.0833333333333\n'
p315
aS'315\t23.01.2016 4:20:21\t-0.0833333333333\n'
p316
aS'316\t23.01.2016 4:30:21\t-0.0833333333333\n'
p317
aS'317\t23.01.2016 4:40:21\t-0.0833333333333\n'
p318
aS'318\t23.01.2016 4:50:21\t-0.0769230769231\n'
p319
aS'319\t23.01.2016 5:00:21\t-0.0709677419355\n'
p320
aS'320\t23.01.2016 5:10:21\t-0.0709677419355\n'
p321
aS'321\t23.01.2016 5:20:21\t-0.0675241157556\n'
p322
aS'322\t23.01.2016 5:30:21\t-0.0645161290323\n'
p323
aS'323\t23.01.2016 5:40:21\t-0.0610932475884\n'
p324
aS'324\t23.01.2016 5:50:21\t-0.0610932475884\n'
p325
aS'325\t23.01.2016 6:00:21\t-0.058064516129\n'
p326
aS'326\t23.01.2016 6:10:21\t-0.0550161812298\n'
p327
aS'327\t23.01.2016 6:20:21\t-0.0519480519481\n'
p328
aS'328\t23.01.2016 6:30:21\t-0.0451612903226\n'
p329
aS'329\t23.01.2016 6:40:21\t-0.042345276873\n'
p330
aS'330\t23.01.2016 6:50:21\t-0.0358306188925\n'
p331
aS'331\t23.01.2016 7:00:21\t-0.0387096774194\n'
p332
aS'332\t23.01.2016 7:10:21\t-0.0418006430868\n'
p333
aS'333\t23.01.2016 7:20:21\t-0.0387096774194\n'
p334
aS'334\t23.01.2016 7:30:21\t-0.0355987055016\n'
p335
aS'335\t23.01.2016 7:40:21\t-0.0324675324675\n'
p336
aS'336\t23.01.2016 7:50:21\t-0.0258064516129\n'
p337
aS'337\t23.01.2016 8:00:21\t-0.0258064516129\n'
p338
aS'338\t23.01.2016 8:10:21\t-0.0193548387097\n'
p339
aS'339\t23.01.2016 8:20:20\t-0.0161812297735\n'
p340
aS'340\t23.01.2016 8:30:20\t-0.00970873786408\n'
p341
aS'341\t23.01.2016 8:40:20\t-0.00645161290323\n'
p342
aS'342\t23.01.2016 8:50:20\t-0.00323624595469\n'
p343
aS'343\t23.01.2016 9:00:20\t0.00645161290323\n'
p344
aS'344\t23.01.2016 9:10:20\t0.00970873786408\n'
p345
aS'345\t23.01.2016 9:20:20\t0.0129032258065\n'
p346
aS'346\t23.01.2016 9:30:20\t0.0129032258065\n'
p347
aS'347\t23.01.2016 9:40:20\t0.0193548387097\n'
p348
aS'348\t23.01.2016 9:50:20\t0.0291262135922\n'
p349
aS'349\t23.01.2016 10:00:20\t0.0291262135922\n'
p350
aS'350\t23.01.2016 10:10:21\t0.0322580645161\n'
p351
aS'351\t23.01.2016 10:20:21\t0.038961038961\n'
p352
aS'352\t23.01.2016 10:30:21\t0.0451612903226\n'
p353
aS'353\t23.01.2016 10:40:20\t0.0485436893204\n'
p354
aS'354\t23.01.2016 10:50:21\t0.0519480519481\n'
p355
aS'355\t23.01.2016 11:00:20\t0.0550161812298\n'
p356
aS'356\t23.01.2016 11:10:21\t0.0451612903226\n'
p357
aS'357\t23.01.2016 11:20:20\t0.048231511254\n'
p358
aS'358\t23.01.2016 11:30:20\t0.0546623794212\n'
p359
aS'359\t23.01.2016 11:40:20\t0.0550161812298\n'
p360
aS'360\t23.01.2016 11:50:20\t0.0645161290323\n'
p361
aS'361\t23.01.2016 12:00:21\t0.0645161290323\n'
p362
aS'362\t23.01.2016 12:10:20\t0.0645161290323\n'
p363
aS'363\t23.01.2016 12:20:20\t0.0645161290323\n'
p364
aS'364\t23.01.2016 12:30:24\t0.0675241157556\n'
p365
aS'365\t23.01.2016 12:40:22\t0.0709677419355\n'
p366
aS'366\t23.01.2016 12:50:21\t0.0744336569579\n'
p367
aS'367\t23.01.2016 13:00:22\t0.0744336569579\n'
p368
aS'368\t23.01.2016 13:10:23\t0.0744336569579\n'
p369
aS'369\t23.01.2016 13:20:21\t0.08038585209\n'
p370
aS'370\t23.01.2016 13:30:20\t0.0769230769231\n'
p371
aS'371\t23.01.2016 13:40:20\t0.0769230769231\n'
p372
aS'372\t23.01.2016 13:50:20\t0.0838709677419\n'
p373
aS'373\t23.01.2016 14:00:20\t0.0838709677419\n'
p374
aS'374\t23.01.2016 14:10:20\t0.0838709677419\n'
p375
aS'375\t23.01.2016 14:20:20\t0.0862619808307\n'
p376
aS'376\t23.01.2016 14:30:20\t0.0833333333333\n'
p377
aS'377\t23.01.2016 14:40:20\t0.0868167202572\n'
p378
aS'378\t23.01.2016 14:50:20\t0.0862619808307\n'
p379
aS'379\t23.01.2016 15:00:20\t0.0903225806452\n'
p380
aS'380\t23.01.2016 15:10:20\t0.0932475884244\n'
p381
aS'381\t23.01.2016 15:20:20\t0.0903225806452\n'
p382
aS'382\t23.01.2016 15:30:20\t0.0932475884244\n'
p383
aS'383\t23.01.2016 15:40:19\t0.0932475884244\n'
p384
aS'384\t23.01.2016 15:50:19\t0.0967741935484\n'
p385
aS'385\t23.01.2016 16:00:20\t0.0967741935484\n'
p386
aS'386\t23.01.2016 16:10:20\t0.0967741935484\n'
p387
aS'387\t23.01.2016 16:20:19\t0.0967741935484\n'
p388
aS'388\t23.01.2016 16:30:19\t0.0996784565916\n'
p389
aS'389\t23.01.2016 16:40:19\t0.0996784565916\n'
p390
aS'390\t23.01.2016 16:50:19\t0.0996784565916\n'
p391
aS'391\t23.01.2016 17:00:19\t0.0932475884244\n'
p392
aS'392\t23.01.2016 17:10:19\t0.0932475884244\n'
p393
aS'393\t23.01.2016 17:20:19\t0.0932475884244\n'
p394
aS'394\t23.01.2016 17:30:21\t0.0932475884244\n'
p395
aS'395\t23.01.2016 17:40:19\t0.0932475884244\n'
p396
aS'396\t23.01.2016 17:50:19\t0.0897435897436\n'
p397
aS'397\t23.01.2016 18:00:22\t0.0838709677419\n'
p398
aS'398\t23.01.2016 18:10:19\t0.0833333333333\n'
p399
aS'399\t23.01.2016 18:20:19\t0.08038585209\n'
p400
aS'400\t23.01.2016 18:30:19\t0.0769230769231\n'
p401
aS'401\t23.01.2016 18:40:19\t0.0769230769231\n'
p402
aS'402\t23.01.2016 18:50:19\t0.0769230769231\n'
p403
aS'403\t23.01.2016 19:00:19\t0.0739549839228\n'
p404
aS'404\t23.01.2016 19:10:19\t0.0705128205128\n'
p405
aS'405\t23.01.2016 19:20:19\t0.0670926517572\n'
p406
aS'406\t23.01.2016 19:30:19\t0.0576923076923\n'
p407
aS'407\t23.01.2016 19:40:19\t0.048231511254\n'
p408
aS'408\t23.01.2016 19:50:19\t0.0415335463259\n'
p409
aS'409\t23.01.2016 20:00:19\t0.0384615384615\n'
p410
aS'410\t23.01.2016 20:10:19\t0.031847133758\n'
p411
aS'411\t23.01.2016 20:20:19\t0.0192307692308\n'
p412
aS'412\t23.01.2016 20:30:19\t0.0192307692308\n'
p413
aS'413\t23.01.2016 20:40:19\t0.0159744408946\n'
p414
aS'414\t23.01.2016 20:50:19\t0.0096463022508\n'
p415
aS'415\t23.01.2016 21:00:19\t-7.27338417415e-17\n'
p416
aS'416\t23.01.2016 21:10:19\t-0.0096463022508\n'
p417
aS'417\t23.01.2016 21:20:19\t-0.00641025641026\n'
p418
aS'418\t23.01.2016 21:30:19\t-0.00641025641026\n'
p419
aS'419\t23.01.2016 21:40:19\t-0.0159744408946\n'
p420
aS'420\t23.01.2016 21:50:19\t-0.0159744408946\n'
p421
aS'421\t23.01.2016 22:00:19\t-0.0223642172524\n'
p422
aS'422\t23.01.2016 22:10:19\t-0.0287539936102\n'
p423
aS'423\t23.01.2016 22:20:19\t-0.035143769968\n'
p424
aS'424\t23.01.2016 22:30:19\t-0.0382165605096\n'
p425
aS'425\t23.01.2016 22:40:18\t-0.0509554140127\n'
p426
aS'426\t23.01.2016 22:50:18\t-0.0573248407643\n'
p427
aS'427\t23.01.2016 23:00:18\t-0.0573248407643\n'
p428
aS'428\t23.01.2016 23:10:18\t-0.0700636942675\n'
p429
aS'429\t23.01.2016 23:20:18\t-0.0730158730159\n'
p430
aS'430\t23.01.2016 23:30:18\t-0.0764331210191\n'
p431
aS'431\t23.01.2016 23:40:18\t-0.0862619808307\n'
p432
aS'432\t23.01.2016 23:50:18\t-0.0891719745223\n'
p433
aS'433\t24.01.2016 0:00:18\t-0.0920634920635\n'
p434
aS'434\t24.01.2016 0:10:18\t-0.0891719745223\n'
p435
aS'435\t24.01.2016 0:20:18\t-0.0920634920635\n'
p436
aS'436\t24.01.2016 0:30:18\t-0.0920634920635\n'
p437
aS'437\t24.01.2016 0:40:20\t-0.0949367088608\n'
p438
aS'438\t24.01.2016 0:50:18\t-0.0955414012739\n'
p439
aS'439\t24.01.2016 1:00:18\t-0.0984126984127\n'
p440
aS'440\t24.01.2016 1:10:18\t-0.0949367088608\n'
p441
aS'441\t24.01.2016 1:20:18\t-0.0984126984127\n'
p442
aS'442\t24.01.2016 1:30:18\t-0.0984126984127\n'
p443
aS'443\t24.01.2016 1:40:18\t-0.0955414012739\n'
p444
aS'444\t24.01.2016 1:50:18\t-0.0955414012739\n'
p445
aS'445\t24.01.2016 2:00:18\t-0.0984126984127\n'
p446
aS'446\t24.01.2016 2:10:18\t-0.101910828025\n'
p447
aS'447\t24.01.2016 2:20:18\t-0.0984126984127\n'
p448
aS'448\t24.01.2016 2:30:18\t-0.101910828025\n'
p449
aS'449\t24.01.2016 2:40:18\t-0.101910828025\n'
p450
aS'450\t24.01.2016 2:50:18\t-0.101910828025\n'
p451
aS'451\t24.01.2016 3:00:18\t-0.101910828025\n'
p452
aS'452\t24.01.2016 3:10:18\t-0.101910828025\n'
p453
aS'453\t24.01.2016 3:20:18\t-0.101910828025\n'
p454
aS'454\t24.01.2016 3:30:18\t-0.0984126984127\n'
p455
aS'455\t24.01.2016 3:40:18\t-0.0984126984127\n'
p456
aS'456\t24.01.2016 3:50:18\t-0.0984126984127\n'
p457
aS'457\t24.01.2016 4:00:18\t-0.0984126984127\n'
p458
aS'458\t24.01.2016 4:10:17\t-0.0955414012739\n'
p459
aS'459\t24.01.2016 4:20:17\t-0.0955414012739\n'
p460
aS'460\t24.01.2016 4:30:18\t-0.0920634920635\n'
p461
aS'461\t24.01.2016 4:40:18\t-0.0920634920635\n'
p462
aS'462\t24.01.2016 4:50:18\t-0.0920634920635\n'
p463
aS'463\t24.01.2016 5:00:18\t-0.0920634920635\n'
p464
aS'464\t24.01.2016 5:10:18\t-0.0891719745223\n'
p465
aS'465\t24.01.2016 5:20:18\t-0.0862619808307\n'
p466
aS'466\t24.01.2016 5:30:18\t-0.0833333333333\n'
p467
aS'467\t24.01.2016 5:40:18\t-0.0833333333333\n'
p468
aS'468\t24.01.2016 5:50:17\t-0.0774193548387\n'
p469
aS'469\t24.01.2016 6:00:17\t-0.0764331210191\n'
p470
aS'470\t24.01.2016 6:10:17\t-0.0764331210191\n'
p471
aS'471\t24.01.2016 6:20:17\t-0.0764331210191\n'
p472
aS'472\t24.01.2016 6:30:17\t-0.073482428115\n'
p473
aS'473\t24.01.2016 6:40:17\t-0.073482428115\n'
p474
aS'474\t24.01.2016 6:50:17\t-0.0705128205128\n'
p475
aS'475\t24.01.2016 7:00:17\t-0.0675241157556\n'
p476
aS'476\t24.01.2016 7:10:17\t-0.0641025641026\n'
p477
aS'477\t24.01.2016 7:20:17\t-0.0641025641026\n'
p478
aS'478\t24.01.2016 7:30:17\t-0.0576923076923\n'
p479
aS'479\t24.01.2016 7:40:17\t-0.0543130990415\n'
p480
aS'480\t24.01.2016 7:50:17\t-0.0512820512821\n'
p481
aS'481\t24.01.2016 8:00:17\t-0.048231511254\n'
p482
aS'482\t24.01.2016 8:10:17\t-0.048231511254\n'
p483
aS'483\t24.01.2016 8:20:17\t-0.042071197411\n'
p484
aS'484\t24.01.2016 8:30:17\t-0.0322580645161\n'
p485
aS'485\t24.01.2016 8:40:17\t-0.0225080385852\n'
p486
aS'486\t24.01.2016 8:50:17\t-0.0193548387097\n'
p487
aS'487\t24.01.2016 9:00:17\t-0.0129032258065\n'
p488
aS'488\t24.01.2016 9:10:17\t-0.0129032258065\n'
p489
aS'489\t24.01.2016 9:20:17\t-0.00645161290323\n'
p490
aS'490\t24.01.2016 9:30:17\t-0.0032154340836\n'
p491
aS'491\t24.01.2016 9:40:17\t0.0032154340836\n'
p492
aS'492\t24.01.2016 9:50:17\t0.00970873786408\n'
p493
aS'493\t24.01.2016 10:00:17\t0.016077170418\n'
p494
aS'494\t24.01.2016 10:10:17\t0.0193548387097\n'
p495
aS'495\t24.01.2016 10:20:17\t0.0226537216828\n'
p496
aS'496\t24.01.2016 10:30:17\t0.0291262135922\n'
p497
aS'497\t24.01.2016 10:40:16\t0.0355987055016\n'
p498
aS'498\t24.01.2016 10:50:16\t0.042071197411\n'
p499
aS'499\t24.01.2016 11:00:17\t0.0387096774194\n'
p500
aS'500\t24.01.2016 11:10:17\t0.0519480519481\n'
p501
aS'501\t24.01.2016 11:20:16\t0.0584415584416\n'
p502
aS'502\t24.01.2016 11:30:17\t0.0649350649351\n'
p503
aS'503\t24.01.2016 11:40:16\t0.0649350649351\n'
p504
aS'504\t24.01.2016 11:50:16\t0.0749185667752\n'
p505
aS'505\t24.01.2016 12:00:16\t0.0844155844156\n'
p506
aS'506\t24.01.2016 12:10:16\t0.0873786407767\n'
p507
aS'507\t24.01.2016 12:20:16\t0.0938511326861\n'
p508
aS'508\t24.01.2016 12:30:16\t0.100977198697\n'
p509
aS'509\t24.01.2016 12:40:16\t0.100977198697\n'
p510
aS'510\t24.01.2016 12:50:16\t0.106796116505\n'
p511
aS'511\t24.01.2016 13:00:16\t0.113268608414\n'
p512
aS'512\t24.01.2016 13:20:16\t0.120521172638\n'
p513
aS'513\t24.01.2016 13:30:16\t0.123376623377\n'
p514
aS'514\t24.01.2016 13:40:16\t0.130718954248\n'
p515
aS'515\t24.01.2016 13:50:16\t0.11038961039\n'
p516
aS'516\t24.01.2016 14:00:16\t0.11038961039\n'
p517
aS'517\t24.01.2016 14:10:16\t0.107491856678\n'
p518
aS'518\t24.01.2016 14:20:16\t0.107491856678\n'
p519
aS'519\t24.01.2016 14:30:16\t0.107491856678\n'
p520
aS'520\t24.01.2016 14:40:16\t0.107491856678\n'
p521
aS'521\t24.01.2016 14:50:16\t0.107491856678\n'
p522
aS'522\t24.01.2016 15:00:16\t0.107491856678\n'
p523
aS'523\t24.01.2016 15:10:16\t0.107491856678\n'
p524
aS'524\t24.01.2016 15:20:16\t0.104575163399\n'
p525
aS'525\t24.01.2016 15:30:16\t0.100977198697\n'
p526
aS'526\t24.01.2016 15:40:16\t0.100977198697\n'
p527
aS'527\t24.01.2016 15:50:16\t0.0974025974026\n'
p528
aS'528\t24.01.2016 16:00:16\t0.0974025974026\n'
p529
aS'529\t24.01.2016 16:10:16\t0.0974025974026\n'
p530
aS'530\t24.01.2016 16:20:16\t0.0909090909091\n'
p531
aS'531\t24.01.2016 16:30:16\t0.0909090909091\n'
p532
aS'532\t24.01.2016 16:40:16\t0.0814332247557\n'
p533
aS'533\t24.01.2016 16:50:16\t0.0849673202614\n'
p534
aS'534\t24.01.2016 17:00:16\t0.0819672131148\n'
p535
aS'535\t24.01.2016 17:10:16\t0.078431372549\n'
p536
aS'536\t24.01.2016 17:20:15\t0.078431372549\n'
p537
aS'537\t24.01.2016 17:30:15\t0.0814332247557\n'
p538
aS'538\t24.01.2016 17:40:15\t0.078431372549\n'
p539
aS'539\t24.01.2016 17:50:15\t0.0819672131148\n'
p540
aS'540\t24.01.2016 18:10:15\t0.0814332247557\n'
p541
aS'541\t24.01.2016 18:20:15\t0.0649350649351\n'
p542
aS'542\t24.01.2016 18:30:15\t0.0614886731392\n'
p543
aS'543\t24.01.2016 18:40:15\t0.0584415584416\n'
p544
aS'544\t24.01.2016 18:50:15\t0.0584415584416\n'
p545
aS'545\t24.01.2016 19:00:15\t0.0550161812298\n'
p546
aS'546\t24.01.2016 19:10:15\t0.0519480519481\n'
p547
aS'547\t24.01.2016 19:20:15\t0.0516129032258\n'
p548
aS'548\t24.01.2016 19:30:15\t0.042071197411\n'
p549
aS'549\t24.01.2016 19:40:15\t0.042071197411\n'
p550
aS'550\t24.01.2016 19:50:15\t0.042071197411\n'
p551
aS'551\t24.01.2016 20:00:15\t0.0322580645161\n'
p552
aS'552\t24.01.2016 20:10:15\t0.0322580645161\n'
p553
aS'553\t24.01.2016 20:20:15\t0.0289389067524\n'
p554
aS'554\t24.01.2016 20:30:15\t0.0193548387097\n'
p555
aS'555\t24.01.2016 20:40:15\t0.0226537216828\n'
p556
aS'556\t24.01.2016 20:50:15\t0.012987012987\n'
p557
aS'557\t24.01.2016 21:00:15\t0.012987012987\n'
p558
aS'558\t24.01.2016 21:10:15\t0.00970873786408\n'
p559
aS'559\t24.01.2016 21:20:15\t0.00645161290323\n'
p560
aS'560\t24.01.2016 21:30:15\t0.00323624595469\n'
p561
aS'561\t24.01.2016 21:40:15\t-7.32030923333e-17\n'
p562
aS'562\t24.01.2016 21:50:15\t-0.00649350649351\n'
p563
aS'563\t24.01.2016 22:00:15\t0.0196078431373\n'
p564
aS'564\t24.01.2016 22:10:15\t0.0196078431373\n'
p565
aS'565\t24.01.2016 22:20:15\t0.016393442623\n'
p566
aS'566\t24.01.2016 22:30:15\t0.0162866449511\n'
p567
aS'567\t24.01.2016 22:40:15\t0.0130718954248\n'
p568
aS'568\t24.01.2016 22:50:15\t0.00983606557377\n'
p569
aS'569\t24.01.2016 23:00:15\t0.00653594771242\n'
p570
aS'570\t24.01.2016 23:10:15\t0.00653594771242\n'
p571
aS'571\t24.01.2016 23:20:15\t0.00653594771242\n'
p572
aS'572\t24.01.2016 23:30:15\t0.0264900662252\n'
p573
aS'573\t24.01.2016 23:40:15\t0.0264900662252\n'
p574
aS'574\t24.01.2016 23:50:15\t0.023102310231\n'
p575
aS'575\t25.01.2016 0:00:15\t0.023102310231\n'
p576
aS'576\t25.01.2016 0:10:15\t0.0197368421053\n'
p577
aS'577\t25.01.2016 0:20:14\t0.0166112956811\n'
p578
aS'578\t25.01.2016 0:30:15\t0.00990099009901\n'
p579
aS'579\t25.01.2016 0:40:14\t0.0166112956811\n'
p580
aS'580\t25.01.2016 0:50:15\t0.016501650165\n'
p581
aS'581\t25.01.2016 1:00:15\t0.0198675496689\n'
p582
aS'582\t25.01.2016 1:10:14\t0.016501650165\n'
p583
aS'583\t25.01.2016 1:20:14\t0.0163934426229\n'
p584
aS'584\t25.01.2016 1:30:15\t0.016501650165\n'
p585
aS'585\t25.01.2016 1:40:14\t0.0131578947368\n'
p586
aS'586\t25.01.2016 1:50:14\t0.0132450331126\n'
p587
aS'587\t25.01.2016 2:00:14\t0.00657894736842\n'
p588
aS'588\t25.01.2016 2:10:14\t0.00657894736842\n'
p589
aS'589\t25.01.2016 2:20:14\t0.00657894736842\n'
p590
aS'590\t25.01.2016 2:30:14\t0.00657894736842\n'
p591
aS'591\t25.01.2016 2:40:14\t0.0263157894737\n'
p592
aS'592\t25.01.2016 2:50:14\t0.0263157894737\n'
p593
aS'593\t25.01.2016 3:00:15\t0.029702970297\n'
p594
aS'594\t25.01.2016 3:10:14\t0.0295081967213\n'
p595
aS'595\t25.01.2016 3:20:14\t0.036303630363\n'
p596
aS'596\t25.01.2016 3:30:14\t0.036303630363\n'
p597
aS'597\t25.01.2016 3:40:14\t0.036303630363\n'
p598
aS'598\t25.01.2016 3:50:14\t0.036303630363\n'
p599
aS'599\t25.01.2016 4:00:14\t0.0392156862745\n'
p600
aS'600\t25.01.2016 4:10:14\t0.042904290429\n'
p601
aS'601\t25.01.2016 4:20:14\t0.0392156862745\n'
p602
aS'602\t25.01.2016 4:30:14\t0.0426229508197\n'
p603
aS'603\t25.01.2016 4:40:14\t0.0426229508197\n'
p604
aS'604\t25.01.2016 4:50:14\t0.0454545454545\n'
p605
aS'605\t25.01.2016 5:00:14\t0.0488599348534\n'
p606
aS'606\t25.01.2016 5:10:14\t0.0526315789474\n'
p607
aS'607\t25.01.2016 5:20:14\t0.055737704918\n'
p608
aS'608\t25.01.2016 5:30:13\t0.0553745928339\n'
p609
aS'609\t25.01.2016 5:40:13\t0.0588235294118\n'
p610
aS'610\t25.01.2016 5:50:14\t0.0653594771242\n'
p611
aS'611\t25.01.2016 6:00:13\t0.0684039087948\n'
p612
aS'612\t25.01.2016 6:10:14\t0.0684039087948\n'
p613
aS'613\t25.01.2016 6:20:14\t0.0744336569579\n'
p614
aS'614\t25.01.2016 6:30:13\t0.0779220779221\n'
p615
aS'615\t25.01.2016 6:40:13\t0.0814332247557\n'
p616
aS'616\t25.01.2016 6:50:13\t0.0849673202614\n'
p617
aS'617\t25.01.2016 7:00:13\t0.0849673202614\n'
p618
aS'618\t25.01.2016 7:10:13\t0.0849673202614\n'
p619
aS'619\t25.01.2016 7:20:13\t0.0915032679739\n'
p620
aS'620\t25.01.2016 7:30:13\t0.0950819672131\n'
p621
aS'621\t25.01.2016 7:40:14\t0.0950819672131\n'
p622
aS'622\t25.01.2016 7:50:13\t0.100977198697\n'
p623
aS'623\t25.01.2016 8:00:14\t0.104575163399\n'
p624
aS'624\t25.01.2016 8:10:13\t0.104575163399\n'
p625
aS'625\t25.01.2016 8:20:14\t0.101639344262\n'
p626
aS'626\t25.01.2016 8:30:13\t0.104575163399\n'
p627
aS'627\t25.01.2016 8:40:13\t0.104575163399\n'
p628
aS'628\t25.01.2016 8:50:13\t0.104575163399\n'
p629
aS'629\t25.01.2016 9:00:13\t0.104575163399\n'
p630
aS'630\t25.01.2016 9:10:13\t0.108196721311\n'
p631
aS'631\t25.01.2016 9:20:13\t0.108196721311\n'
p632
aS'632\t25.01.2016 9:30:13\t0.111111111111\n'
p633
aS'633\t25.01.2016 9:40:13\t0.108196721311\n'
p634
aS'634\t25.01.2016 9:50:13\t0.111842105263\n'
p635
aS'635\t25.01.2016 10:00:13\t0.111111111111\n'
p636
aS'636\t25.01.2016 10:10:13\t0.111111111111\n'
p637
aS'637\t25.01.2016 10:20:13\t0.111111111111\n'
p638
aS'638\t25.01.2016 10:30:13\t0.111111111111\n'
p639
aS'639\t25.01.2016 10:40:13\t0.111111111111\n'
p640
aS'640\t25.01.2016 10:50:13\t0.111111111111\n'
p641
aS'641\t25.01.2016 11:00:13\t0.108196721311\n'
p642
aS'642\t25.01.2016 11:10:13\t0.105263157895\n'
p643
aS'643\t25.01.2016 11:20:13\t0.108196721311\n'
p644
aS'644\t25.01.2016 11:30:13\t0.105263157895\n'
p645
aS'645\t25.01.2016 11:40:13\t0.105263157895\n'
p646
aS'646\t25.01.2016 11:50:13\t0.105263157895\n'
p647
aS'647\t25.01.2016 12:00:13\t0.0993377483444\n'
p648
aS'648\t25.01.2016 12:10:13\t0.0993377483444\n'
p649
aS'649\t25.01.2016 12:20:13\t0.0993377483444\n'
p650
aS'650\t25.01.2016 12:30:13\t0.0993377483444\n'
p651
aS'651\t25.01.2016 12:40:13\t0.0993377483444\n'
p652
aS'652\t25.01.2016 12:50:13\t0.0993377483444\n'
p653
aS'653\t25.01.2016 13:00:13\t0.0957095709571\n'
p654
aS'654\t25.01.2016 13:10:12\t0.0957095709571\n'
p655
aS'655\t25.01.2016 13:20:12\t0.0957095709571\n'
p656
aS'656\t25.01.2016 13:30:12\t0.0957095709571\n'
p657
aS'657\t25.01.2016 13:40:13\t0.0957095709571\n'
p658
aS'658\t25.01.2016 13:50:12\t0.0885245901639\n'
p659
aS'659\t25.01.2016 14:00:12\t0.0885245901639\n'
p660
aS'660\t25.01.2016 14:10:12\t0.0855263157895\n'
p661
aS'661\t25.01.2016 14:20:12\t0.0819672131148\n'
p662
aS'662\t25.01.2016 14:30:12\t0.0789473684211\n'
p663
aS'663\t25.01.2016 14:40:12\t0.0789473684211\n'
p664
aS'664\t25.01.2016 14:50:12\t0.0728476821192\n'
p665
aS'665\t25.01.2016 15:00:12\t0.0759075907591\n'
p666
aS'666\t25.01.2016 15:10:12\t0.0759075907591\n'
p667
aS'667\t25.01.2016 15:20:12\t0.0728476821192\n'
p668
aS'668\t25.01.2016 15:30:12\t0.0657894736842\n'
p669
aS'669\t25.01.2016 15:40:12\t0.0693069306931\n'
p670
aS'670\t25.01.2016 15:50:12\t0.0657894736842\n'
p671
aS'671\t25.01.2016 16:00:12\t0.0657894736842\n'
p672
aS'672\t25.01.2016 16:10:12\t0.0657894736842\n'
p673
aS'673\t25.01.2016 16:20:12\t0.0596026490066\n'
p674
aS'674\t25.01.2016 16:30:12\t0.0561056105611\n'
p675
aS'675\t25.01.2016 16:40:12\t0.0561056105611\n'
p676
aS'676\t25.01.2016 16:50:12\t0.0561056105611\n'
p677
aS'677\t25.01.2016 17:00:12\t0.0529801324503\n'
p678
aS'678\t25.01.2016 17:10:12\t0.0529801324503\n'
p679
aS'679\t25.01.2016 17:20:12\t0.0397350993377\n'
p680
aS'680\t25.01.2016 17:30:12\t0.0397350993377\n'
p681
aS'681\t25.01.2016 17:40:12\t0.036303630363\n'
p682
aS'682\t25.01.2016 17:50:12\t0.0397350993377\n'
p683
aS'683\t25.01.2016 18:00:12\t0.0397350993377\n'
p684
aS'684\t25.01.2016 18:10:12\t0.0198675496689\n'
p685
aS'685\t25.01.2016 18:20:12\t0.016501650165\n'
p686
aS'686\t25.01.2016 18:30:12\t0.016501650165\n'
p687
aS'687\t25.01.2016 18:40:12\t0.016501650165\n'
p688
aS'688\t25.01.2016 18:50:12\t0.00983606557377\n'
p689
aS'689\t25.01.2016 19:00:12\t0.00983606557377\n'
p690
aS'690\t25.01.2016 19:10:12\t0.00327868852459\n'
p691
aS'691\t25.01.2016 19:20:12\t0.00327868852459\n'
p692
aS'692\t25.01.2016 19:30:12\t0.00657894736842\n'
p693
aS'693\t25.01.2016 19:40:12\t0.00327868852459\n'
p694
aS'694\t25.01.2016 19:50:12\t0.00327868852459\n'
p695
aS'695\t25.01.2016 20:00:11\t0.0163934426229\n'
p696
aS'696\t25.01.2016 20:10:12\t0.0163934426229\n'
p697
aS'697\t25.01.2016 20:20:12\t0.0163934426229\n'
p698
aS'698\t25.01.2016 20:30:12\t0.0163934426229\n'
p699
aS'699\t25.01.2016 20:40:12\t0.0197368421053\n'
p700
aS'700\t25.01.2016 20:50:11\t0.0163934426229\n'
p701
aS'701\t25.01.2016 21:00:11\t0.0163934426229\n'
p702
aS'702\t25.01.2016 21:10:12\t0.0163934426229\n'
p703
aS'703\t25.01.2016 21:20:11\t0.0326797385621\n'
p704
aS'704\t25.01.2016 21:30:11\t0.0360655737705\n'
p705
aS'705\t25.01.2016 21:40:11\t0.0360655737705\n'
p706
aS'706\t25.01.2016 21:50:11\t0.0360655737705\n'
p707
aS'707\t25.01.2016 22:00:11\t0.0394736842105\n'
p708
aS'708\t25.01.2016 22:10:11\t0.0457516339869\n'
p709
aS'709\t25.01.2016 22:20:11\t0.0457516339869\n'
p710
aS'710\t25.01.2016 22:30:11\t0.0457516339869\n'
p711
aS'711\t25.01.2016 22:40:11\t0.0526315789474\n'
p712
aS'712\t25.01.2016 22:50:11\t0.055737704918\n'
p713
aS'713\t25.01.2016 23:00:11\t0.055737704918\n'
p714
aS'714\t25.01.2016 23:10:11\t0.055737704918\n'
p715
aS'715\t25.01.2016 23:20:11\t0.0618892508143\n'
p716
aS'716\t25.01.2016 23:30:11\t0.0653594771242\n'
p717
aS'717\t25.01.2016 23:40:11\t0.0653594771242\n'
p718
aS'718\t25.01.2016 23:50:11\t0.0688524590164\n'
p719
aS'719\t26.01.2016 0:00:11\t0.0723684210526\n'
p720
aS'720\t26.01.2016 0:10:11\t0.0754098360656\n'
p721
aS'721\t26.01.2016 0:20:11\t0.0754098360656\n'
p722
aS'722\t26.01.2016 0:30:11\t0.0789473684211\n'
p723
aS'723\t26.01.2016 0:40:11\t0.0789473684211\n'
p724
aS'724\t26.01.2016 0:50:10\t0.0849673202614\n'
p725
aS'725\t26.01.2016 1:00:11\t0.0885245901639\n'
p726
aS'726\t26.01.2016 1:10:10\t0.0885245901639\n'
p727
aS'727\t26.01.2016 1:20:10\t0.0915032679739\n'
p728
aS'728\t26.01.2016 1:30:11\t0.0986842105263\n'
p729
aS'729\t26.01.2016 1:40:11\t0.100977198697\n'
p730
aS'730\t26.01.2016 1:50:10\t0.100977198697\n'
p731
aS'731\t26.01.2016 2:00:11\t0.104575163399\n'
p732
aS'732\t26.01.2016 2:10:11\t0.107491856678\n'
p733
aS'733\t26.01.2016 2:20:11\t0.111111111111\n'
p734
aS'734\t26.01.2016 2:30:11\t0.114006514658\n'
p735
aS'735\t26.01.2016 2:40:11\t0.114006514658\n'
p736
aS'736\t26.01.2016 2:50:11\t0.116883116883\n'
p737
aS'737\t26.01.2016 3:00:11\t0.120521172638\n'
p738
aS'738\t26.01.2016 3:10:11\t0.124183006536\n'
p739
aS'739\t26.01.2016 3:20:10\t0.124183006536\n'
p740
aS'740\t26.01.2016 3:30:10\t0.133550488599\n'
p741
aS'741\t26.01.2016 3:40:10\t0.133550488599\n'
p742
aS'742\t26.01.2016 3:50:10\t0.134426229508\n'
p743
aS'743\t26.01.2016 4:00:11\t0.134426229508\n'
p744
aS'744\t26.01.2016 4:10:10\t0.138157894737\n'
p745
aS'745\t26.01.2016 4:20:10\t0.140983606557\n'
p746
aS'746\t26.01.2016 4:30:10\t0.141914191419\n'
p747
aS'747\t26.01.2016 4:40:10\t0.141914191419\n'
p748
aS'748\t26.01.2016 4:50:10\t0.147540983607\n'
p749
aS'749\t26.01.2016 5:00:10\t0.155115511551\n'
p750
aS'750\t26.01.2016 5:10:10\t0.157894736842\n'
p751
aS'751\t26.01.2016 5:20:10\t0.154098360656\n'
p752
aS'752\t26.01.2016 5:30:10\t0.157894736842\n'
p753
aS'753\t26.01.2016 5:40:10\t0.156862745098\n'
p754
aS'754\t26.01.2016 5:50:10\t0.154098360656\n'
p755
aS'755\t26.01.2016 6:00:10\t0.16339869281\n'
p756
aS'756\t26.01.2016 6:10:10\t0.16339869281\n'
p757
aS'757\t26.01.2016 6:20:10\t0.16339869281\n'
p758
aS'758\t26.01.2016 6:30:10\t0.167213114754\n'
p759
aS'759\t26.01.2016 6:40:10\t0.167213114754\n'
p760
aS'760\t26.01.2016 6:50:10\t0.167213114754\n'
p761
aS'761\t26.01.2016 7:00:10\t0.16339869281\n'
p762
aS'762\t26.01.2016 7:10:10\t0.159609120521\n'
p763
aS'763\t26.01.2016 7:20:10\t0.161716171617\n'
p764
aS'764\t26.01.2016 7:30:10\t0.151315789474\n'
p765
aS'765\t26.01.2016 7:40:10\t0.151315789474\n'
p766
aS'766\t26.01.2016 7:50:10\t0.151315789474\n'
p767
aS'767\t26.01.2016 8:00:10\t0.147540983607\n'
p768
aS'768\t26.01.2016 8:10:10\t0.138157894737\n'
p769
aS'769\t26.01.2016 8:20:09\t0.143790849673\n'
p770
aS'770\t26.01.2016 8:30:10\t0.138157894737\n'
p771
aS'771\t26.01.2016 8:40:09\t0.138157894737\n'
p772
aS'772\t26.01.2016 8:50:09\t0.138157894737\n'
p773
aS'773\t26.01.2016 9:00:09\t0.130718954248\n'
p774
aS'774\t26.01.2016 9:10:10\t0.130718954248\n'
p775
aS'775\t26.01.2016 9:20:09\t0.127868852459\n'
p776
aS'776\t26.01.2016 9:30:09\t0.127868852459\n'
p777
aS'777\t26.01.2016 9:40:09\t0.127868852459\n'
p778
aS'778\t26.01.2016 9:50:09\t0.124183006536\n'
p779
aS'779\t26.01.2016 10:00:09\t0.124183006536\n'
p780
aS'780\t26.01.2016 10:10:09\t0.117647058824\n'
p781
aS'781\t26.01.2016 10:20:09\t0.114754098361\n'
p782
aS'782\t26.01.2016 10:30:11\t0.114754098361\n'
p783
aS'783\t26.01.2016 10:40:09\t0.111111111111\n'
p784
aS'784\t26.01.2016 10:50:09\t0.111111111111\n'
p785
aS'785\t26.01.2016 11:00:10\t0.108196721311\n'
p786
aS'786\t26.01.2016 11:10:10\t0.108196721311\n'
p787
aS'787\t26.01.2016 11:20:09\t0.108196721311\n'
p788
aS'788\t26.01.2016 11:30:09\t0.101639344262\n'
p789
aS'789\t26.01.2016 11:40:09\t0.0986842105263\n'
p790
aS'790\t26.01.2016 11:50:09\t0.0986842105263\n'
p791
aS'791\t26.01.2016 12:00:09\t0.0950819672131\n'
p792
aS'792\t26.01.2016 12:10:09\t0.0986842105263\n'
p793
aS'793\t26.01.2016 12:20:09\t0.0957095709571\n'
p794
aS'794\t26.01.2016 12:30:09\t0.0855263157895\n'
p795
aS'795\t26.01.2016 12:40:09\t0.0855263157895\n'
p796
aS'796\t26.01.2016 12:50:09\t0.0855263157895\n'
p797
aS'797\t26.01.2016 13:00:09\t0.0789473684211\n'
p798
aS'798\t26.01.2016 13:10:09\t0.078431372549\n'
p799
aS'799\t26.01.2016 13:20:09\t0.0754098360656\n'
p800
aS'800\t26.01.2016 13:30:09\t0.0754098360656\n'
p801
aS'801\t26.01.2016 13:40:09\t0.0718954248366\n'
p802
aS'802\t26.01.2016 13:50:09\t0.0718954248366\n'
p803
aS'803\t26.01.2016 14:00:09\t0.0688524590164\n'
p804
aS'804\t26.01.2016 14:10:09\t0.0688524590164\n'
p805
aS'805\t26.01.2016 14:20:09\t0.0688524590164\n'
p806
aS'806\t26.01.2016 14:30:09\t0.0653594771242\n'
p807
aS'807\t26.01.2016 14:40:09\t0.0622950819672\n'
p808
aS'808\t26.01.2016 14:50:09\t0.0592105263158\n'
p809
aS'809\t26.01.2016 15:00:09\t0.055737704918\n'
p810
aS'810\t26.01.2016 15:10:09\t0.055737704918\n'
p811
aS'811\t26.01.2016 15:20:08\t0.0522875816993\n'
p812
aS'812\t26.01.2016 15:30:08\t0.0491803278689\n'
p813
aS'813\t26.01.2016 15:40:08\t0.0457516339869\n'
p814
aS'814\t26.01.2016 15:50:08\t0.0426229508197\n'
p815
aS'815\t26.01.2016 16:00:24\t0.0392156862745\n'
p816
aS'816\t26.01.2016 16:10:08\t0.0360655737705\n'
p817
aS'817\t26.01.2016 16:20:08\t0.0360655737705\n'
p818
aS'818\t26.01.2016 16:30:09\t0.0360655737705\n'
p819
aS'819\t26.01.2016 16:40:08\t0.0326797385621\n'
p820
aS'820\t26.01.2016 16:50:08\t0.0293159609121\n'
p821
aS'821\t26.01.2016 17:00:08\t0.0326797385621\n'
p822
aS'822\t26.01.2016 17:10:08\t0.0295081967213\n'
p823
aS'823\t26.01.2016 17:20:08\t0.0263157894737\n'
p824
aS'824\t26.01.2016 17:30:08\t0.0229508196721\n'
p825
aS'825\t26.01.2016 17:40:08\t0.0196078431373\n'
p826
aS'826\t26.01.2016 17:50:08\t0.0229508196721\n'
p827
aS'827\t26.01.2016 18:00:08\t0.0162866449511\n'
p828
aS'828\t26.01.2016 18:10:08\t0.0162866449511\n'
p829
aS'829\t26.01.2016 18:20:08\t0.0131578947368\n'
p830
aS'830\t26.01.2016 18:30:08\t0.0130718954248\n'
p831
aS'831\t26.01.2016 18:40:08\t0.0130718954248\n'
p832
aS'832\t26.01.2016 18:50:08\t0.0130718954248\n'
p833
aS'833\t26.01.2016 19:00:08\t0.00977198697068\n'
p834
aS'834\t26.01.2016 19:10:08\t0.0130718954248\n'
p835
aS'835\t26.01.2016 19:20:08\t0.012987012987\n'
p836
aS'836\t26.01.2016 19:30:08\t0.00977198697068\n'
p837
aS'837\t26.01.2016 19:40:08\t0.00977198697068\n'
p838
aS'838\t26.01.2016 19:50:08\t0.00977198697068\n'
p839
aS'839\t26.01.2016 20:00:08\t0.0130718954248\n'
p840
aS'840\t26.01.2016 20:10:08\t0.0130718954248\n'
p841
aS'841\t26.01.2016 20:20:08\t0.00977198697068\n'
p842
aS'842\t26.01.2016 20:30:08\t0.0130718954248\n'
p843
aS'843\t26.01.2016 20:40:08\t0.0130718954248\n'
p844
aS'844\t26.01.2016 20:50:24\t0.0130718954248\n'
p845
aS'845\t26.01.2016 21:00:08\t0.0130718954248\n'
p846
aS'846\t26.01.2016 21:10:08\t0.0130718954248\n'
p847
aS'847\t26.01.2016 21:20:08\t0.0130718954248\n'
p848
aS'848\t26.01.2016 21:30:08\t0.0130718954248\n'
p849
aS'849\t26.01.2016 21:40:08\t0.0130718954248\n'
p850
aS'850\t26.01.2016 21:50:08\t0.0130718954248\n'
p851
aS'851\t26.01.2016 22:00:08\t0.0196078431373\n'
p852
aS'852\t26.01.2016 22:10:08\t0.0196078431373\n'
p853
aS'853\t26.01.2016 22:20:08\t0.0196078431373\n'
p854
aS'854\t26.01.2016 22:30:08\t0.0229508196721\n'
p855
aS'855\t26.01.2016 22:40:07\t0.0229508196721\n'
p856
aS'856\t26.01.2016 22:50:07\t0.0293159609121\n'
p857
aS'857\t26.01.2016 23:00:08\t0.0326797385621\n'
p858
aS'858\t26.01.2016 23:10:07\t0.0392156862745\n'
p859
aS'859\t26.01.2016 23:20:07\t0.0392156862745\n'
p860
aS'860\t26.01.2016 23:30:07\t0.042345276873\n'
p861
aS'861\t26.01.2016 23:40:07\t0.0488599348534\n'
p862
aS'862\t26.01.2016 23:50:07\t0.0488599348534\n'
p863
aS'863\t27.01.2016 0:00:07\t0.0488599348534\n'
p864
aS'864\t27.01.2016 0:10:07\t0.0488599348534\n'
p865
aS'865\t27.01.2016 0:20:07\t0.0584415584416\n'
p866
aS'866\t27.01.2016 0:30:07\t0.0618892508143\n'
p867
aS'867\t27.01.2016 0:40:07\t0.0653594771242\n'
p868
aS'868\t27.01.2016 0:50:07\t0.0684039087948\n'
p869
aS'869\t27.01.2016 1:00:07\t0.0718954248366\n'
p870
aS'870\t27.01.2016 1:10:07\t0.0744336569579\n'
p871
aS'871\t27.01.2016 1:20:07\t0.0774193548387\n'
p872
aS'872\t27.01.2016 1:30:22\t0.0809061488673\n'
p873
aS'873\t27.01.2016 1:40:07\t0.0838709677419\n'
p874
aS'874\t27.01.2016 1:50:07\t0.0838709677419\n'
p875
aS'875\t27.01.2016 2:00:07\t0.0932475884244\n'
p876
aS'876\t27.01.2016 2:10:07\t0.0932475884244\n'
p877
aS'877\t27.01.2016 2:20:07\t0.0932475884244\n'
p878
aS'878\t27.01.2016 2:30:07\t0.102564102564\n'
p879
aS'879\t27.01.2016 2:40:07\t0.106109324759\n'
p880
aS'880\t27.01.2016 2:50:07\t0.106109324759\n'
p881
aS'881\t27.01.2016 3:00:06\t0.109677419355\n'
p882
aS'882\t27.01.2016 3:10:06\t0.112540192926\n'
p883
aS'883\t27.01.2016 3:20:07\t0.116129032258\n'
p884
aS'884\t27.01.2016 3:30:07\t0.121794871795\n'
p885
aS'885\t27.01.2016 3:40:06\t0.119741100324\n'
p886
aS'886\t27.01.2016 3:50:06\t0.114006514658\n'
p887
aS'887\t27.01.2016 4:00:07\t0.117647058824\n'
p888
aS'888\t27.01.2016 4:10:06\t0.117647058824\n'
p889
aS'889\t27.01.2016 4:20:06\t0.117647058824\n'
p890
aS'890\t27.01.2016 4:30:06\t0.123376623377\n'
p891
aS'891\t27.01.2016 4:40:06\t0.123376623377\n'
p892
aS'892\t27.01.2016 4:50:06\t0.133550488599\n'
p893
aS'893\t27.01.2016 5:00:06\t0.133550488599\n'
p894
aS'894\t27.01.2016 5:10:06\t0.133550488599\n'
p895
aS'895\t27.01.2016 5:20:07\t0.133550488599\n'
p896
aS'896\t27.01.2016 5:30:07\t0.136363636364\n'
p897
aS'897\t27.01.2016 5:40:06\t0.14006514658\n'
p898
aS'898\t27.01.2016 5:50:06\t0.142857142857\n'
p899
aS'899\t27.01.2016 6:00:07\t0.142857142857\n'
p900
aS'900\t27.01.2016 6:10:07\t0.14657980456\n'
p901
aS'901\t27.01.2016 6:20:07\t0.142857142857\n'
p902
aS'902\t27.01.2016 6:30:06\t0.14657980456\n'
p903
aS'903\t27.01.2016 6:40:06\t0.150326797386\n'
p904
aS'904\t27.01.2016 6:50:06\t0.150326797386\n'
p905
aS'905\t27.01.2016 7:00:06\t0.150326797386\n'
p906
aS'906\t27.01.2016 7:10:06\t0.155844155844\n'
p907
aS'907\t27.01.2016 7:20:06\t0.156862745098\n'
p908
aS'908\t27.01.2016 7:30:06\t0.156862745098\n'
p909
aS'909\t27.01.2016 7:40:06\t0.156862745098\n'
p910
aS'910\t27.01.2016 7:50:06\t0.156862745098\n'
p911
aS'911\t27.01.2016 8:00:06\t0.156862745098\n'
p912
aS'912\t27.01.2016 8:10:06\t0.156862745098\n'
p913
aS'913\t27.01.2016 8:20:06\t0.156862745098\n'
p914
aS'914\t27.01.2016 8:30:06\t0.156862745098\n'
p915
aS'915\t27.01.2016 8:40:06\t0.164473684211\n'
p916
aS'916\t27.01.2016 8:50:06\t0.160655737705\n'
p917
aS'917\t27.01.2016 9:00:06\t0.160655737705\n'
p918
aS'918\t27.01.2016 9:10:06\t0.160655737705\n'
p919
aS'919\t27.01.2016 9:20:06\t0.156862745098\n'
p920
aS'920\t27.01.2016 9:30:06\t0.156862745098\n'
p921
aS'921\t27.01.2016 9:40:06\t0.160655737705\n'
p922
aS'922\t27.01.2016 9:50:06\t0.160655737705\n'
p923
aS'923\t27.01.2016 10:00:06\t0.160655737705\n'
p924
aS'924\t27.01.2016 10:10:06\t0.156862745098\n'
p925
aS'925\t27.01.2016 10:20:06\t0.156862745098\n'
p926
aS'926\t27.01.2016 10:30:05\t0.156862745098\n'
p927
aS'927\t27.01.2016 10:40:06\t0.156862745098\n'
p928
aS'928\t27.01.2016 10:50:06\t0.154098360656\n'
p929
aS'929\t27.01.2016 11:00:05\t0.154098360656\n'
p930
aS'930\t27.01.2016 11:10:06\t0.154098360656\n'
p931
aS'931\t27.01.2016 11:20:05\t0.154098360656\n'
p932
aS'932\t27.01.2016 11:30:05\t0.154098360656\n'
p933
aS'933\t27.01.2016 11:40:05\t0.147540983607\n'
p934
aS'934\t27.01.2016 11:50:05\t0.147540983607\n'
p935
aS'935\t27.01.2016 12:00:05\t0.147540983607\n'
p936
aS'936\t27.01.2016 12:10:05\t0.147540983607\n'
p937
aS'937\t27.01.2016 12:20:05\t0.144736842105\n'
p938
aS'938\t27.01.2016 12:30:05\t0.140983606557\n'
p939
aS'939\t27.01.2016 12:40:05\t0.137254901961\n'
p940
aS'940\t27.01.2016 12:50:05\t0.137254901961\n'
p941
aS'941\t27.01.2016 13:00:05\t0.133550488599\n'
p942
aS'942\t27.01.2016 13:10:05\t0.12987012987\n'
p943
aS'943\t27.01.2016 13:20:05\t0.124183006536\n'
p944
aS'944\t27.01.2016 13:40:05\t0.124183006536\n'
p945
aS'945\t27.01.2016 13:50:05\t0.124183006536\n'
p946
aS'946\t27.01.2016 14:00:05\t0.12131147541\n'
p947
aS'947\t27.01.2016 14:10:05\t0.117647058824\n'
p948
aS'948\t27.01.2016 14:20:05\t0.117647058824\n'
p949
aS'949\t27.01.2016 14:30:05\t0.117647058824\n'
p950
aS'950\t27.01.2016 14:40:05\t0.111842105263\n'
p951
aS'951\t27.01.2016 14:50:05\t0.111842105263\n'
p952
aS'952\t27.01.2016 15:00:05\t0.108196721311\n'
p953
aS'953\t27.01.2016 15:10:05\t0.108196721311\n'
p954
aS'954\t27.01.2016 15:20:05\t0.108196721311\n'
p955
aS'955\t27.01.2016 15:30:05\t0.104575163399\n'
p956
aS'956\t27.01.2016 15:40:05\t0.104575163399\n'
p957
aS'957\t27.01.2016 15:50:05\t0.101639344262\n'
p958
aS'958\t27.01.2016 16:00:21\t0.0980392156863\n'
p959
aS'959\t27.01.2016 16:10:05\t0.0980392156863\n'
p960
aS'960\t27.01.2016 16:20:05\t0.0950819672131\n'
p961
aS'961\t27.01.2016 16:30:08\t0.0950819672131\n'
p962
aS'962\t27.01.2016 16:40:09\t0.0944625407166\n'
p963
aS'963\t27.01.2016 16:50:05\t0.0921052631579\n'
p964
aS'964\t27.01.2016 17:00:05\t0.0849673202614\n'
p965
aS'965\t27.01.2016 17:10:05\t0.0819672131148\n'
p966
aS'966\t27.01.2016 17:20:05\t0.0819672131148\n'
p967
aS'967\t27.01.2016 17:30:05\t0.0759075907591\n'
p968
aS'968\t27.01.2016 17:40:04\t0.0723684210526\n'
p969
aS'969\t27.01.2016 17:50:05\t0.0688524590164\n'
p970
aS'970\t27.01.2016 18:00:04\t0.0653594771242\n'
p971
aS'971\t27.01.2016 18:10:04\t0.0622950819672\n'
p972
aS'972\t27.01.2016 18:20:05\t0.0723684210526\n'
p973
aS'973\t27.01.2016 18:30:04\t0.0592105263158\n'
p974
aS'974\t27.01.2016 18:40:05\t0.0526315789474\n'
p975
aS'975\t27.01.2016 18:50:04\t0.0522875816993\n'
p976
aS'976\t27.01.2016 19:00:04\t0.0488599348534\n'
p977
aS'977\t27.01.2016 19:10:04\t0.0392156862745\n'
p978
aS'978\t27.01.2016 19:20:04\t0.0392156862745\n'
p979
aS'979\t27.01.2016 19:30:04\t0.0392156862745\n'
p980
aS'980\t27.01.2016 19:40:04\t0.0392156862745\n'
p981
aS'981\t27.01.2016 19:50:04\t0.0360655737705\n'
p982
aS'982\t27.01.2016 20:00:04\t0.0295081967213\n'
p983
aS'983\t27.01.2016 20:10:04\t0.0295081967213\n'
p984
aS'984\t27.01.2016 20:20:04\t0.0295081967213\n'
p985
aS'985\t27.01.2016 20:30:04\t0.0263157894737\n'
p986
aS'986\t27.01.2016 20:40:04\t0.0263157894737\n'
p987
aS'987\t27.01.2016 20:50:19\t0.023102310231\n'
p988
aS'988\t27.01.2016 21:00:04\t0.0263157894737\n'
p989
aS'989\t27.01.2016 21:10:04\t0.0196078431373\n'
p990
aS'990\t27.01.2016 21:20:04\t0.0196078431373\n'
p991
aS'991\t27.01.2016 21:30:04\t0.0196078431373\n'
p992
aS'992\t27.01.2016 21:40:04\t0.0196078431373\n'
p993
aS'993\t27.01.2016 21:50:04\t0.0196078431373\n'
p994
aS'994\t27.01.2016 22:00:04\t0.016393442623\n'
p995
aS'995\t27.01.2016 22:10:04\t0.016393442623\n'
p996
aS'996\t27.01.2016 22:20:04\t0.016393442623\n'
p997
aS'997\t27.01.2016 22:30:03\t0.016393442623\n'
p998
aS'998\t27.01.2016 22:40:03\t0.00977198697068\n'
p999
aS'999\t27.01.2016 22:50:04\t0.0131578947368\n'
p1000
aS'1000\t27.01.2016 23:00:03\t0.00653594771242\n'
p1001
aS'1001\t27.01.2016 23:10:03\t0.00983606557377\n'
p1002
aS'1002\t27.01.2016 23:20:04\t0.00977198697068\n'
p1003
aS'1003\t27.01.2016 23:30:04\t0.00977198697068\n'
p1004
aS'1004\t27.01.2016 23:40:04\t0.00977198697068\n'
p1005
aS'1005\t27.01.2016 23:50:04\t0.00653594771242\n'
p1006
aS'1006\t28.01.2016 0:00:04\t0.00977198697068\n'
p1007
aS'1007\t28.01.2016 0:10:04\t0.00977198697068\n'
p1008
aS'1008\t28.01.2016 0:20:04\t0.00977198697068\n'
p1009
aS'1009\t28.01.2016 0:30:04\t0.00977198697068\n'
p1010
aS'1010\t28.01.2016 0:40:04\t0.016393442623\n'
p1011
aS'1011\t28.01.2016 0:50:03\t0.0131578947368\n'
p1012
aS'1012\t28.01.2016 1:00:04\t0.016393442623\n'
p1013
aS'1013\t28.01.2016 1:10:04\t0.0196078431373\n'
p1014
aS'1014\t28.01.2016 1:20:03\t0.0229508196721\n'
p1015
aS'1015\t28.01.2016 1:30:04\t0.0229508196721\n'
p1016
aS'1016\t28.01.2016 1:40:03\t0.0229508196721\n'
p1017
aS'1017\t28.01.2016 1:50:03\t0.0261437908497\n'
p1018
aS'1018\t28.01.2016 2:00:03\t0.0263157894737\n'
p1019
aS'1019\t28.01.2016 2:10:03\t0.0293159609121\n'
p1020
aS'1020\t28.01.2016 2:20:03\t0.0326797385621\n'
p1021
aS'1021\t28.01.2016 2:30:03\t0.0360655737705\n'
p1022
aS'1022\t28.01.2016 2:40:03\t0.0360655737705\n'
p1023
aS'1023\t28.01.2016 2:50:03\t0.0392156862745\n'
p1024
aS'1024\t28.01.2016 3:00:03\t0.0426229508197\n'
p1025
aS'1025\t28.01.2016 3:10:03\t0.0426229508197\n'
p1026
aS'1026\t28.01.2016 3:20:03\t0.0457516339869\n'
p1027
aS'1027\t28.01.2016 3:40:03\t0.055737704918\n'
p1028
aS'1028\t28.01.2016 3:50:03\t0.055737704918\n'
p1029
aS'1029\t28.01.2016 4:00:03\t0.055737704918\n'
p1030
aS'1030\t28.01.2016 4:10:03\t0.055737704918\n'
p1031
aS'1031\t28.01.2016 4:20:03\t0.0522875816993\n'
p1032
aS'1032\t28.01.2016 4:30:03\t0.0553745928339\n'
p1033
aS'1033\t28.01.2016 4:40:03\t0.0588235294118\n'
p1034
aS'1034\t28.01.2016 4:50:03\t0.055737704918\n'
p1035
aS'1035\t28.01.2016 5:00:03\t0.0622950819672\n'
p1036
aS'1036\t28.01.2016 5:10:03\t0.0622950819672\n'
p1037
aS'1037\t28.01.2016 5:20:03\t0.0653594771242\n'
p1038
aS'1038\t28.01.2016 5:30:02\t0.0653594771242\n'
p1039
aS'1039\t28.01.2016 5:40:03\t0.0688524590164\n'
p1040
aS'1040\t28.01.2016 5:50:02\t0.0723684210526\n'
p1041
aS'1041\t28.01.2016 6:00:02\t0.0723684210526\n'
p1042
aS'1042\t28.01.2016 6:10:03\t0.0723684210526\n'
p1043
aS'1043\t28.01.2016 6:20:18\t0.0789473684211\n'
p1044
aS'1044\t28.01.2016 6:30:02\t0.0789473684211\n'
p1045
aS'1045\t28.01.2016 6:40:02\t0.0825082508251\n'
p1046
aS'1046\t28.01.2016 6:50:02\t0.0860927152318\n'
p1047
aS'1047\t28.01.2016 7:00:02\t0.0849673202614\n'
p1048
aS'1048\t28.01.2016 7:10:02\t0.0885245901639\n'
p1049
aS'1049\t28.01.2016 7:20:02\t0.0849673202614\n'
p1050
aS'1050\t28.01.2016 7:30:02\t0.0849673202614\n'
p1051
aS'1051\t28.01.2016 7:40:02\t0.0849673202614\n'
p1052
aS'1052\t28.01.2016 7:50:02\t0.0879478827362\n'
p1053
aS'1053\t28.01.2016 8:00:02\t0.0909090909091\n'
p1054
aS'1054\t28.01.2016 8:10:02\t0.0944625407166\n'
p1055
aS'1055\t28.01.2016 8:20:02\t0.0944625407166\n'
p1056
aS'1056\t28.01.2016 8:30:02\t0.0944625407166\n'
p1057
aS'1057\t28.01.2016 8:40:02\t0.101639344262\n'
p1058
aS'1058\t28.01.2016 8:50:02\t0.101639344262\n'
p1059
aS'1059\t28.01.2016 9:00:02\t0.104575163399\n'
p1060
aS'1060\t28.01.2016 9:10:02\t0.104575163399\n'
p1061
aS'1061\t28.01.2016 9:20:02\t0.104575163399\n'
p1062
aS'1062\t28.01.2016 9:30:02\t0.104575163399\n'
p1063
aS'1063\t28.01.2016 9:40:02\t0.104575163399\n'
p1064
aS'1064\t28.01.2016 9:50:02\t0.108196721311\n'
p1065
aS'1065\t28.01.2016 10:00:02\t0.107491856678\n'
p1066
aS'1066\t28.01.2016 10:10:02\t0.111111111111\n'
p1067
aS'1067\t28.01.2016 10:20:02\t0.114006514658\n'
p1068
aS'1068\t28.01.2016 10:30:02\t0.114006514658\n'
p1069
aS'1069\t28.01.2016 10:40:02\t0.114006514658\n'
p1070
aS'1070\t28.01.2016 10:50:02\t0.114006514658\n'
p1071
aS'1071\t28.01.2016 11:00:02\t0.114006514658\n'
p1072
aS'1072\t28.01.2016 11:10:18\t0.114006514658\n'
p1073
aS'1073\t28.01.2016 11:20:02\t0.12131147541\n'
p1074
aS'1074\t28.01.2016 11:30:02\t0.117647058824\n'
p1075
aS'1075\t28.01.2016 11:40:02\t0.12131147541\n'
p1076
aS'1076\t28.01.2016 11:50:02\t0.12131147541\n'
p1077
aS'1077\t28.01.2016 12:00:02\t0.12131147541\n'
p1078
aS'1078\t28.01.2016 12:10:02\t0.12131147541\n'
p1079
aS'1079\t28.01.2016 12:20:02\t0.12131147541\n'
p1080
aS'1080\t28.01.2016 12:30:02\t0.12131147541\n'
p1081
aS'1081\t28.01.2016 12:40:02\t0.12131147541\n'
p1082
aS'1082\t28.01.2016 12:50:01\t0.12131147541\n'
p1083
aS'1083\t28.01.2016 13:00:02\t0.12131147541\n'
p1084
aS'1084\t28.01.2016 13:10:02\t0.124183006536\n'
p1085
aS'1085\t28.01.2016 13:20:02\t0.12131147541\n'
p1086
aS'1086\t28.01.2016 13:30:02\t0.12131147541\n'
p1087
aS'1087\t28.01.2016 13:40:02\t0.12131147541\n'
p1088
aS'1088\t28.01.2016 13:50:02\t0.12131147541\n'
p1089
aS'1089\t28.01.2016 14:00:02\t0.124183006536\n'
p1090
aS'1090\t28.01.2016 14:10:02\t0.117647058824\n'
p1091
aS'1091\t28.01.2016 14:20:02\t0.117647058824\n'
p1092
aS'1092\t28.01.2016 14:30:02\t0.114006514658\n'
p1093
aS'1093\t28.01.2016 14:40:02\t0.114006514658\n'
p1094
aS'1094\t28.01.2016 14:50:03\t0.12131147541\n'
p1095
aS'1095\t28.01.2016 15:00:03\t0.117647058824\n'
p1096
aS'1096\t28.01.2016 15:10:03\t0.114006514658\n'
p1097
aS'1097\t28.01.2016 15:20:03\t0.117647058824\n'
p1098
aS'1098\t28.01.2016 15:30:03\t0.117647058824\n'
p1099
aS'1099\t28.01.2016 15:40:03\t0.117647058824\n'
p1100
aS'1100\t28.01.2016 15:50:03\t0.117647058824\n'
p1101
aS'1101\t28.01.2016 16:00:21\t0.114754098361\n'
p1102
aS'1102\t28.01.2016 16:10:04\t0.114754098361\n'
p1103
aS'1103\t28.01.2016 16:20:04\t0.114006514658\n'
p1104
aS'1104\t28.01.2016 16:30:04\t0.114006514658\n'
p1105
aS'1105\t28.01.2016 16:40:04\t0.114754098361\n'
p1106
aS'1106\t28.01.2016 16:50:04\t0.114006514658\n'
p1107
aS'1107\t28.01.2016 17:00:04\t0.111842105263\n'
p1108
aS'1108\t28.01.2016 17:10:05\t0.111842105263\n'
p1109
aS'1109\t28.01.2016 17:20:05\t0.111842105263\n'
p1110
aS'1110\t28.01.2016 17:30:05\t0.111842105263\n'
p1111
aS'1111\t28.01.2016 17:40:05\t0.104575163399\n'
p1112
aS'1112\t28.01.2016 17:50:06\t0.104575163399\n'
p1113
aS'1113\t28.01.2016 18:00:10\t0.104575163399\n'
p1114
aS'1114\t28.01.2016 18:10:06\t0.0944625407166\n'
p1115
aS'1115\t28.01.2016 18:19:35\t0.0915032679739\n'
p1116
aS'1116\t28.01.2016 18:30:06\t0.0915032679739\n'
p1117
aS'1117\t28.01.2016 18:40:06\t0.0915032679739\n'
p1118
aS'1118\t28.01.2016 18:50:06\t0.0814332247557\n'
p1119
aS'1119\t28.01.2016 19:00:07\t0.0814332247557\n'
p1120
aS'1120\t28.01.2016 19:10:07\t0.0814332247557\n'
p1121
aS'1121\t28.01.2016 19:20:07\t0.0814332247557\n'
p1122
aS'1122\t28.01.2016 19:30:07\t0.0779220779221\n'
p1123
aS'1123\t28.01.2016 19:40:07\t0.0718954248366\n'
p1124
aS'1124\t28.01.2016 19:50:07\t0.0718954248366\n'
p1125
aS'1125\t28.01.2016 20:00:08\t0.0714285714286\n'
p1126
aS'1126\t28.01.2016 20:10:08\t0.0679611650485\n'
p1127
aS'1127\t28.01.2016 20:20:08\t0.0679611650485\n'
p1128
aS'1128\t28.01.2016 20:30:08\t0.055737704918\n'
p1129
aS'1129\t28.01.2016 20:40:08\t0.0522875816993\n'
p1130
aS'1130\t28.01.2016 20:50:08\t0.0522875816993\n'
p1131
aS'1131\t28.01.2016 21:00:08\t0.0491803278689\n'
p1132
aS'1132\t28.01.2016 21:10:10\t0.0491803278689\n'
p1133
aS'1133\t28.01.2016 21:20:09\t0.0457516339869\n'
p1134
aS'1134\t28.01.2016 21:30:09\t0.0454545454545\n'
p1135
aS'1135\t28.01.2016 21:40:09\t0.042345276873\n'
p1136
aS'1136\t28.01.2016 21:50:09\t0.0392156862745\n'
p1137
aS'1137\t28.01.2016 22:00:09\t0.0392156862745\n'
p1138
aS'1138\t28.01.2016 22:10:10\t0.0392156862745\n'
p1139
aS'1139\t28.01.2016 22:20:10\t0.0358306188925\n'
p1140
aS'1140\t28.01.2016 22:30:10\t0.0392156862745\n'
p1141
aS'1141\t28.01.2016 22:40:10\t0.0392156862745\n'
p1142
aS'1142\t28.01.2016 22:50:10\t0.0358306188925\n'
p1143
aS'1143\t28.01.2016 23:00:10\t0.0358306188925\n'
p1144
aS'1144\t28.01.2016 23:10:10\t0.0326797385621\n'
p1145
aS'1145\t28.01.2016 23:20:10\t0.0326797385621\n'
p1146
aS'1146\t28.01.2016 23:30:10\t0.0295081967213\n'
p1147
aS'1147\t28.01.2016 23:40:11\t0.0295081967213\n'
p1148
aS'1148\t28.01.2016 23:50:11\t0.0295081967213\n'
p1149
aS'1149\t29.01.2016 0:00:11\t0.0261437908497\n'
p1150
aS'1150\t29.01.2016 0:10:11\t0.0261437908497\n'
p1151
aS'1151\t29.01.2016 0:20:11\t0.0261437908497\n'
p1152
aS'1152\t29.01.2016 0:30:12\t0.0229508196721\n'
p1153
aS'1153\t29.01.2016 0:40:12\t0.0229508196721\n'
p1154
aS'1154\t29.01.2016 0:50:12\t0.0229508196721\n'
p1155
aS'1155\t29.01.2016 1:00:12\t0.0162866449511\n'
p1156
aS'1156\t29.01.2016 1:10:12\t0.016393442623\n'
p1157
aS'1157\t29.01.2016 1:20:12\t0.0162866449511\n'
p1158
aS'1158\t29.01.2016 1:30:28\t0.0162866449511\n'
p1159
aS'1159\t29.01.2016 1:40:13\t0.0162866449511\n'
p1160
aS'1160\t29.01.2016 1:50:13\t0.0162866449511\n'
p1161
aS'1161\t29.01.2016 2:00:13\t0.0162866449511\n'
p1162
aS'1162\t29.01.2016 2:10:13\t0.0130718954248\n'
p1163
aS'1163\t29.01.2016 2:20:13\t0.0130718954248\n'
p1164
aS'1164\t29.01.2016 2:30:13\t0.0130718954248\n'
p1165
aS'1165\t29.01.2016 2:40:13\t0.0130718954248\n'
p1166
aS'1166\t29.01.2016 2:50:14\t0.0130718954248\n'
p1167
aS'1167\t29.01.2016 3:00:14\t0.00983606557377\n'
p1168
aS'1168\t29.01.2016 3:10:14\t0.0130718954248\n'
p1169
aS'1169\t29.01.2016 3:20:14\t0.0130718954248\n'
p1170
aS'1170\t29.01.2016 3:30:15\t0.0130718954248\n'
p1171
aS'1171\t29.01.2016 3:40:15\t0.0130718954248\n'
p1172
aS'1172\t29.01.2016 3:50:15\t0.0130718954248\n'
p1173
aS'1173\t29.01.2016 4:00:15\t0.0130718954248\n'
p1174
aS'1174\t29.01.2016 4:10:15\t0.0162866449511\n'
p1175
aS'1175\t29.01.2016 4:20:16\t0.0130718954248\n'
p1176
aS'1176\t29.01.2016 4:30:15\t0.0162866449511\n'
p1177
aS'1177\t29.01.2016 4:40:16\t0.0162866449511\n'
p1178
aS'1178\t29.01.2016 4:50:16\t0.0196078431373\n'
p1179
aS'1179\t29.01.2016 5:00:16\t0.0228013029316\n'
p1180
aS'1180\t29.01.2016 5:10:16\t0.0229508196721\n'
p1181
aS'1181\t29.01.2016 5:20:16\t0.0293159609121\n'
p1182
aS'1182\t29.01.2016 5:30:16\t0.0326797385621\n'
p1183
aS'1183\t29.01.2016 5:40:17\t0.0326797385621\n'
p1184
aS'1184\t29.01.2016 5:50:17\t0.0326797385621\n'
p1185
aS'1185\t29.01.2016 6:00:17\t0.0358306188925\n'
p1186
aS'1186\t29.01.2016 6:10:17\t0.0426229508197\n'
p1187
aS'1187\t29.01.2016 6:20:17\t0.0457516339869\n'
p1188
aS'1188\t29.01.2016 6:30:17\t0.0488599348534\n'
p1189
aS'1189\t29.01.2016 6:40:17\t0.0522875816993\n'
p1190
aS'1190\t29.01.2016 6:50:18\t0.055737704918\n'
p1191
aS'1191\t29.01.2016 7:00:18\t0.0522875816993\n'
p1192
aS'1192\t29.01.2016 7:10:18\t0.0522875816993\n'
p1193
aS'1193\t29.01.2016 7:20:18\t0.0522875816993\n'
p1194
aS'1194\t29.01.2016 7:30:18\t0.0522875816993\n'
p1195
aS'1195\t29.01.2016 7:40:18\t0.0622950819672\n'
p1196
aS'1196\t29.01.2016 7:50:18\t0.0622950819672\n'
p1197
aS'1197\t29.01.2016 8:00:19\t0.0653594771242\n'
p1198
aS'1198\t29.01.2016 8:10:19\t0.0653594771242\n'
p1199
aS'1199\t29.01.2016 8:20:19\t0.0684039087948\n'
p1200
aS'1200\t29.01.2016 8:30:19\t0.0718954248366\n'
p1201
aS'1201\t29.01.2016 8:40:19\t0.0718954248366\n'
p1202
aS'1202\t29.01.2016 8:50:19\t0.0749185667752\n'
p1203
aS'1203\t29.01.2016 9:00:19\t0.0749185667752\n'
p1204
aS'1204\t29.01.2016 9:10:20\t0.0814332247557\n'
p1205
aS'1205\t29.01.2016 9:20:20\t0.0849673202614\n'
p1206
aS'1206\t29.01.2016 9:30:20\t0.0849673202614\n'
p1207
aS'1207\t29.01.2016 9:40:20\t0.0885245901639\n'
p1208
aS'1208\t29.01.2016 9:50:20\t0.0915032679739\n'
p1209
aS'1209\t29.01.2016 10:00:21\t0.0915032679739\n'
p1210
aS'1210\t29.01.2016 10:10:21\t0.0944625407166\n'
p1211
aS'1211\t29.01.2016 10:20:21\t0.0944625407166\n'
p1212
aS'1212\t29.01.2016 10:30:21\t0.100977198697\n'
p1213
aS'1213\t29.01.2016 10:40:21\t0.104575163399\n'
p1214
aS'1214\t29.01.2016 10:50:21\t0.104575163399\n'
p1215
aS'1215\t29.01.2016 11:00:21\t0.104575163399\n'
p1216
aS'1216\t29.01.2016 11:10:40\t0.108196721311\n'
p1217
aS'1217\t29.01.2016 11:20:22\t0.108196721311\n'
p1218
aS'1218\t29.01.2016 11:30:22\t0.108196721311\n'
p1219
aS'1219\t29.01.2016 11:40:22\t0.108196721311\n'
p1220
aS'1220\t29.01.2016 11:50:23\t0.114006514658\n'
p1221
aS'1221\t29.01.2016 12:00:23\t0.108196721311\n'
p1222
aS'1222\t29.01.2016 12:10:23\t0.111111111111\n'
p1223
aS'1223\t29.01.2016 12:20:23\t0.114006514658\n'
p1224
aS'1224\t29.01.2016 12:30:23\t0.114006514658\n'
p1225
aS'1225\t29.01.2016 12:40:23\t0.117647058824\n'
p1226
aS'1226\t29.01.2016 12:50:23\t0.117647058824\n'
p1227
aS'1227\t29.01.2016 13:00:24\t0.12131147541\n'
p1228
aS'1228\t29.01.2016 13:10:24\t0.12131147541\n'
p1229
aS'1229\t29.01.2016 13:20:24\t0.12131147541\n'
p1230
aS'1230\t29.01.2016 13:30:24\t0.12131147541\n'
p1231
aS'1231\t29.01.2016 13:40:24\t0.12131147541\n'
p1232
aS'1232\t29.01.2016 13:50:24\t0.124183006536\n'
p1233
aS'1233\t29.01.2016 14:00:24\t0.124183006536\n'
p1234
aS'1234\t29.01.2016 14:10:24\t0.127868852459\n'
p1235
aS'1235\t29.01.2016 14:20:24\t0.127868852459\n'
p1236
aS'1236\t29.01.2016 14:30:24\t0.127868852459\n'
p1237
aS'1237\t29.01.2016 14:40:23\t0.127868852459\n'
p1238
aS'1238\t29.01.2016 14:50:24\t0.125\n'
p1239
aS'1239\t29.01.2016 15:00:24\t0.127868852459\n'
p1240
aS'1240\t29.01.2016 15:10:24\t0.125\n'
p1241
aS'1241\t29.01.2016 15:20:23\t0.125\n'
p1242
aS'1242\t29.01.2016 15:30:24\t0.122112211221\n'
p1243
aS'1243\t29.01.2016 15:40:23\t0.114754098361\n'
p1244
aS'1244\t29.01.2016 15:50:23\t0.114754098361\n'
p1245
aS'1245\t29.01.2016 16:00:43\t0.114754098361\n'
p1246
aS'1246\t29.01.2016 16:10:23\t0.114754098361\n'
p1247
aS'1247\t29.01.2016 16:20:23\t0.114754098361\n'
p1248
aS'1248\t29.01.2016 16:30:23\t0.114754098361\n'
p1249
aS'1249\t29.01.2016 16:40:23\t0.111111111111\n'
p1250
aS'1250\t29.01.2016 16:50:23\t0.111111111111\n'
p1251
aS'1251\t29.01.2016 17:00:23\t0.111111111111\n'
p1252
aS'1252\t29.01.2016 17:10:23\t0.111111111111\n'
p1253
aS'1253\t29.01.2016 17:20:23\t0.108196721311\n'
p1254
aS'1254\t29.01.2016 17:30:23\t0.108196721311\n'
p1255
aS'1255\t29.01.2016 17:40:23\t0.105263157895\n'
p1256
aS'1256\t29.01.2016 17:50:23\t0.0986842105263\n'
p1257
aS'1257\t29.01.2016 18:00:23\t0.102310231023\n'
p1258
aS'1258\t29.01.2016 18:10:23\t0.0915032679739\n'
p1259
aS'1259\t29.01.2016 18:20:23\t0.0814332247557\n'
p1260
aS'1260\t29.01.2016 18:30:23\t0.0718954248366\n'
p1261
aS'1261\t29.01.2016 18:40:23\t0.0718954248366\n'
p1262
aS'1262\t29.01.2016 18:50:23\t0.0718954248366\n'
p1263
aS'1263\t29.01.2016 19:00:23\t0.0649350649351\n'
p1264
aS'1264\t29.01.2016 19:10:23\t0.0618892508143\n'
p1265
aS'1265\t29.01.2016 19:20:23\t0.0618892508143\n'
p1266
aS'1266\t29.01.2016 19:30:23\t0.0584415584416\n'
p1267
aS'1267\t29.01.2016 19:40:23\t0.0488599348534\n'
p1268
aS'1268\t29.01.2016 19:50:23\t0.0454545454545\n'
p1269
aS'1269\t29.01.2016 20:00:23\t0.0387096774194\n'
p1270
aS'1270\t29.01.2016 20:10:23\t0.0293159609121\n'
p1271
aS'1271\t29.01.2016 20:20:22\t0.0360655737705\n'
p1272
aS'1272\t29.01.2016 20:30:22\t0.0326797385621\n'
p1273
aS'1273\t29.01.2016 20:40:22\t0.0293159609121\n'
p1274
aS'1274\t29.01.2016 20:50:39\t0.0263157894737\n'
p1275
aS'1275\t29.01.2016 21:00:23\t0.0229508196721\n'
p1276
aS'1276\t29.01.2016 21:10:23\t0.0196078431373\n'
p1277
aS'1277\t29.01.2016 21:20:22\t0.0196078431373\n'
p1278
aS'1278\t29.01.2016 21:30:22\t0.016393442623\n'
p1279
aS'1279\t29.01.2016 21:40:23\t0.0196078431373\n'
p1280
aS'1280\t29.01.2016 21:50:23\t0.016393442623\n'
p1281
aS'1281\t29.01.2016 22:00:22\t0.0130718954248\n'
p1282
aS'1282\t29.01.2016 22:10:22\t0.0130718954248\n'
p1283
aS'1283\t29.01.2016 22:20:22\t0.0130718954248\n'
p1284
aS'1284\t29.01.2016 22:30:22\t0.00649350649351\n'
p1285
aS'1285\t29.01.2016 22:40:22\t0.00657894736842\n'
p1286
aS'1286\t29.01.2016 22:50:22\t0.00977198697068\n'
p1287
aS'1287\t29.01.2016 23:00:22\t0.0130718954248\n'
p1288
aS'1288\t29.01.2016 23:10:22\t0.0130718954248\n'
p1289
aS'1289\t29.01.2016 23:20:22\t0.0130718954248\n'
p1290
aS'1290\t29.01.2016 23:30:22\t0.00983606557377\n'
p1291
aS'1291\t29.01.2016 23:40:22\t0.0130718954248\n'
p1292
aS'1292\t29.01.2016 23:50:22\t0.0130718954248\n'
p1293
aS'1293\t30.01.2016 0:00:22\t0.0130718954248\n'
p1294
aS'1294\t30.01.2016 0:10:22\t0.0130718954248\n'
p1295
aS'1295\t30.01.2016 0:20:22\t0.00977198697068\n'
p1296
aS'1296\t30.01.2016 0:30:22\t0.016393442623\n'
p1297
aS'1297\t30.01.2016 0:40:22\t0.016393442623\n'
p1298
aS'1298\t30.01.2016 0:50:22\t0.016393442623\n'
p1299
aS'1299\t30.01.2016 1:00:22\t0.016393442623\n'
p1300
aS'1300\t30.01.2016 1:10:22\t0.0131578947368\n'
p1301
aS'1301\t30.01.2016 1:20:22\t0.0131578947368\n'
p1302
aS'1302\t30.01.2016 1:30:38\t0.0131578947368\n'
p1303
aS'1303\t30.01.2016 1:40:22\t0.0131578947368\n'
p1304
aS'1304\t30.01.2016 1:50:22\t0.016393442623\n'
p1305
aS'1305\t30.01.2016 2:00:22\t0.016393442623\n'
p1306
aS'1306\t30.01.2016 2:10:22\t0.016393442623\n'
p1307
aS'1307\t30.01.2016 2:20:22\t0.016393442623\n'
p1308
aS'1308\t30.01.2016 2:30:22\t0.016393442623\n'
p1309
aS'1309\t30.01.2016 2:40:22\t0.0197368421053\n'
p1310
aS'1310\t30.01.2016 2:50:22\t0.016393442623\n'
p1311
aS'1311\t30.01.2016 3:00:21\t0.0196078431373\n'
p1312
aS'1312\t30.01.2016 3:10:21\t0.0229508196721\n'
p1313
aS'1313\t30.01.2016 3:20:21\t0.0229508196721\n'
p1314
aS'1314\t30.01.2016 3:30:21\t0.0229508196721\n'
p1315
aS'1315\t30.01.2016 3:40:21\t0.0229508196721\n'
p1316
aS'1316\t30.01.2016 3:50:21\t0.0261437908497\n'
p1317
aS'1317\t30.01.2016 4:00:21\t0.0261437908497\n'
p1318
aS'1318\t30.01.2016 4:10:21\t0.0261437908497\n'
p1319
aS'1319\t30.01.2016 4:20:21\t0.0293159609121\n'
p1320
aS'1320\t30.01.2016 4:30:21\t0.0293159609121\n'
p1321
aS'1321\t30.01.2016 4:40:21\t0.0293159609121\n'
p1322
aS'1322\t30.01.2016 4:50:21\t0.0293159609121\n'
p1323
aS'1323\t30.01.2016 5:00:21\t0.0293159609121\n'
p1324
aS'1324\t30.01.2016 5:10:21\t0.0360655737705\n'
p1325
aS'1325\t30.01.2016 5:20:21\t0.0360655737705\n'
p1326
aS'1326\t30.01.2016 5:30:21\t0.0360655737705\n'
p1327
aS'1327\t30.01.2016 5:40:21\t0.0360655737705\n'
p1328
aS'1328\t30.01.2016 5:50:21\t0.0360655737705\n'
p1329
aS'1329\t30.01.2016 6:00:21\t0.0360655737705\n'
p1330
aS'1330\t30.01.2016 6:10:21\t0.0394736842105\n'
p1331
aS'1331\t30.01.2016 6:20:38\t0.0426229508197\n'
p1332
aS'1332\t30.01.2016 6:30:21\t0.0460526315789\n'
p1333
aS'1333\t30.01.2016 6:40:21\t0.0457516339869\n'
p1334
aS'1334\t30.01.2016 6:50:21\t0.0457516339869\n'
p1335
aS'1335\t30.01.2016 7:00:21\t0.0457516339869\n'
p1336
aS'1336\t30.01.2016 7:10:21\t0.0491803278689\n'
p1337
aS'1337\t30.01.2016 7:20:21\t0.0491803278689\n'
p1338
aS'1338\t30.01.2016 7:30:21\t0.0522875816993\n'
p1339
aS'1339\t30.01.2016 7:40:21\t0.055737704918\n'
p1340
aS'1340\t30.01.2016 7:50:21\t0.055737704918\n'
p1341
aS'1341\t30.01.2016 8:00:21\t0.055737704918\n'
p1342
aS'1342\t30.01.2016 8:10:21\t0.055737704918\n'
p1343
aS'1343\t30.01.2016 8:20:21\t0.055737704918\n'
p1344
aS'1344\t30.01.2016 8:30:21\t0.055737704918\n'
p1345
aS'1345\t30.01.2016 8:40:21\t0.0657894736842\n'
p1346
aS'1346\t30.01.2016 8:50:21\t0.0618892508143\n'
p1347
aS'1347\t30.01.2016 9:00:21\t0.0618892508143\n'
p1348
aS'1348\t30.01.2016 9:10:21\t0.0622950819672\n'
p1349
aS'1349\t30.01.2016 9:20:21\t0.0653594771242\n'
p1350
aS'1350\t30.01.2016 9:30:20\t0.0653594771242\n'
p1351
aS'1351\t30.01.2016 9:40:21\t0.0688524590164\n'
p1352
aS'1352\t30.01.2016 9:50:20\t0.0688524590164\n'
p1353
aS'1353\t30.01.2016 10:00:21\t0.0723684210526\n'
p1354
aS'1354\t30.01.2016 10:10:20\t0.0723684210526\n'
p1355
aS'1355\t30.01.2016 10:20:20\t0.0754098360656\n'
p1356
aS'1356\t30.01.2016 10:30:20\t0.078431372549\n'
p1357
aS'1357\t30.01.2016 10:40:20\t0.0814332247557\n'
p1358
aS'1358\t30.01.2016 10:50:20\t0.0849673202614\n'
p1359
aS'1359\t30.01.2016 11:00:20\t0.0814332247557\n'
p1360
aS'1360\t30.01.2016 11:10:36\t0.0849673202614\n'
p1361
aS'1361\t30.01.2016 11:20:20\t0.0849673202614\n'
p1362
aS'1362\t30.01.2016 11:30:20\t0.0885245901639\n'
p1363
aS'1363\t30.01.2016 11:40:20\t0.0921052631579\n'
p1364
aS'1364\t30.01.2016 11:50:20\t0.0921052631579\n'
p1365
aS'1365\t30.01.2016 12:00:20\t0.0921052631579\n'
p1366
aS'1366\t30.01.2016 12:10:20\t0.0921052631579\n'
p1367
aS'1367\t30.01.2016 12:20:20\t0.0986842105263\n'
p1368
aS'1368\t30.01.2016 12:30:20\t0.0950819672131\n'
p1369
aS'1369\t30.01.2016 12:40:20\t0.0980392156863\n'
p1370
aS'1370\t30.01.2016 12:50:20\t0.102310231023\n'
p1371
aS'1371\t30.01.2016 13:00:20\t0.102310231023\n'
p1372
aS'1372\t30.01.2016 13:10:20\t0.0909090909091\n'
p1373
aS'1373\t30.01.2016 13:20:20\t0.0938511326861\n'
p1374
aS'1374\t30.01.2016 13:30:20\t0.0938511326861\n'
p1375
aS'1375\t30.01.2016 13:40:20\t0.108196721311\n'
p1376
aS'1376\t30.01.2016 13:50:20\t0.108196721311\n'
p1377
aS'1377\t30.01.2016 14:00:20\t0.108196721311\n'
p1378
aS'1378\t30.01.2016 14:10:19\t0.108196721311\n'
p1379
aS'1379\t30.01.2016 14:20:20\t0.114006514658\n'
p1380
aS'1380\t30.01.2016 14:30:19\t0.111111111111\n'
p1381
aS'1381\t30.01.2016 14:40:20\t0.114006514658\n'
p1382
aS'1382\t30.01.2016 14:50:19\t0.114006514658\n'
p1383
aS'1383\t30.01.2016 15:00:19\t0.120521172638\n'
p1384
aS'1384\t30.01.2016 15:10:20\t0.120521172638\n'
p1385
aS'1385\t30.01.2016 15:20:20\t0.120521172638\n'
p1386
aS'1386\t30.01.2016 15:30:20\t0.120521172638\n'
p1387
aS'1387\t30.01.2016 15:40:20\t0.120521172638\n'
p1388
aS'1388\t30.01.2016 15:50:20\t0.120521172638\n'
p1389
aS'1389\t30.01.2016 16:10:20\t0.123376623377\n'
p1390
aS'1390\t30.01.2016 16:20:20\t0.123376623377\n'
p1391
aS'1391\t30.01.2016 16:30:20\t0.126213592233\n'
p1392
aS'1392\t30.01.2016 16:40:20\t0.120521172638\n'
p1393
aS'1393\t30.01.2016 16:50:20\t0.120521172638\n'
p1394
aS'1394\t30.01.2016 17:00:19\t0.124183006536\n'
p1395
aS'1395\t30.01.2016 17:10:19\t0.133550488599\n'
p1396
aS'1396\t30.01.2016 17:20:19\t0.126213592233\n'
p1397
aS'1397\t30.01.2016 17:30:19\t0.133550488599\n'
p1398
aS'1398\t30.01.2016 17:40:19\t0.124183006536\n'
p1399
aS'1399\t30.01.2016 17:50:19\t0.120521172638\n'
p1400
aS'1400\t30.01.2016 18:00:19\t0.111111111111\n'
p1401
aS'1401\t30.01.2016 18:10:19\t0.111111111111\n'
p1402
aS'1402\t30.01.2016 18:20:19\t0.111111111111\n'
p1403
aS'1403\t30.01.2016 18:30:19\t0.107491856678\n'
p1404
aS'1404\t30.01.2016 18:40:19\t0.104575163399\n'
p1405
aS'1405\t30.01.2016 18:50:19\t0.104575163399\n'
p1406
aS'1406\t30.01.2016 19:00:19\t0.100977198697\n'
p1407
aS'1407\t30.01.2016 19:10:19\t0.0980392156863\n'
p1408
aS'1408\t30.01.2016 19:20:19\t0.0944625407166\n'
p1409
aS'1409\t30.01.2016 19:30:19\t0.0915032679739\n'
p1410
aS'1410\t30.01.2016 19:40:19\t0.0915032679739\n'
p1411
aS'1411\t30.01.2016 19:50:19\t0.0915032679739\n'
p1412
aS'1412\t30.01.2016 20:00:19\t0.0855263157895\n'
p1413
aS'1413\t30.01.2016 20:10:19\t0.0819672131148\n'
p1414
aS'1414\t30.01.2016 20:20:19\t0.0819672131148\n'
p1415
aS'1415\t30.01.2016 20:30:19\t0.0789473684211\n'
p1416
aS'1416\t30.01.2016 20:40:19\t0.0789473684211\n'
p1417
aS'1417\t30.01.2016 20:50:35\t0.0718954248366\n'
p1418
aS'1418\t30.01.2016 21:00:19\t0.0718954248366\n'
p1419
aS'1419\t30.01.2016 21:10:19\t0.0718954248366\n'
p1420
aS'1420\t30.01.2016 21:20:19\t0.0684039087948\n'
p1421
aS'1421\t30.01.2016 21:30:19\t0.0653594771242\n'
p1422
aS'1422\t30.01.2016 21:40:19\t0.0622950819672\n'
p1423
aS'1423\t30.01.2016 21:50:19\t0.0553745928339\n'
p1424
aS'1424\t30.01.2016 22:00:18\t0.0553745928339\n'
p1425
aS'1425\t30.01.2016 22:10:18\t0.055737704918\n'
p1426
aS'1426\t30.01.2016 22:20:19\t0.0522875816993\n'
p1427
aS'1427\t30.01.2016 22:30:18\t0.0491803278689\n'
p1428
aS'1428\t30.01.2016 22:40:19\t0.0457516339869\n'
p1429
aS'1429\t30.01.2016 22:50:18\t0.0457516339869\n'
p1430
aS'1430\t30.01.2016 23:00:18\t0.0457516339869\n'
p1431
aS'1431\t30.01.2016 23:10:18\t0.0457516339869\n'
p1432
aS'1432\t30.01.2016 23:20:18\t0.038961038961\n'
p1433
aS'1433\t30.01.2016 23:30:18\t0.0358306188925\n'
p1434
aS'1434\t30.01.2016 23:40:18\t0.0358306188925\n'
p1435
aS'1435\t30.01.2016 23:50:18\t0.0358306188925\n'
p1436
a.