(lp0
S'Target cell[DKV] 36-43\n'
p1
aS'1\t11.01.2016 0:00:15\t-0.0862619808307\n'
p2
aS'2\t11.01.2016 0:10:15\t-0.0897435897436\n'
p3
aS'3\t11.01.2016 0:20:15\t-0.0926517571885\n'
p4
aS'4\t11.01.2016 0:30:15\t-0.0990415335463\n'
p5
aS'5\t11.01.2016 0:40:15\t-0.0990415335463\n'
p6
aS'6\t11.01.2016 0:50:15\t-0.101910828025\n'
p7
aS'7\t11.01.2016 1:00:15\t-0.101910828025\n'
p8
aS'8\t11.01.2016 1:10:15\t-0.107594936709\n'
p9
aS'9\t11.01.2016 1:20:15\t-0.104761904762\n'
p10
aS'10\t11.01.2016 1:30:31\t-0.107594936709\n'
p11
aS'11\t11.01.2016 1:40:14\t-0.111111111111\n'
p12
aS'12\t11.01.2016 1:50:15\t-0.113924050633\n'
p13
aS'13\t11.01.2016 2:00:15\t-0.113924050633\n'
p14
aS'14\t11.01.2016 2:10:15\t-0.113924050633\n'
p15
aS'15\t11.01.2016 2:20:15\t-0.113924050633\n'
p16
aS'16\t11.01.2016 2:30:14\t-0.113924050633\n'
p17
aS'17\t11.01.2016 2:40:14\t-0.101910828025\n'
p18
aS'18\t11.01.2016 2:50:14\t-0.0984126984127\n'
p19
aS'19\t11.01.2016 3:00:15\t-0.0926517571885\n'
p20
aS'20\t11.01.2016 3:10:14\t-0.0891719745223\n'
p21
aS'21\t11.01.2016 3:20:14\t-0.0857142857143\n'
p22
aS'22\t11.01.2016 3:30:14\t-0.0828025477707\n'
p23
aS'23\t11.01.2016 3:40:14\t-0.0828025477707\n'
p24
aS'24\t11.01.2016 3:50:14\t-0.0759493670886\n'
p25
aS'25\t11.01.2016 4:00:14\t-0.0759493670886\n'
p26
aS'26\t11.01.2016 4:10:14\t-0.0730158730159\n'
p27
aS'27\t11.01.2016 4:20:14\t-0.0662460567823\n'
p28
aS'28\t11.01.2016 4:30:14\t-0.0662460567823\n'
p29
aS'29\t11.01.2016 4:40:14\t-0.0632911392405\n'
p30
aS'30\t11.01.2016 4:50:14\t-0.0569620253165\n'
p31
aS'31\t11.01.2016 5:00:14\t-0.0539682539683\n'
p32
aS'32\t11.01.2016 5:10:14\t-0.0473186119874\n'
p33
aS'33\t11.01.2016 5:20:14\t-0.0443037974684\n'
p34
aS'34\t11.01.2016 5:30:14\t-0.0410094637224\n'
p35
aS'35\t11.01.2016 5:40:14\t-0.0377358490566\n'
p36
aS'36\t11.01.2016 5:50:14\t-0.0316455696203\n'
p37
aS'37\t11.01.2016 6:00:14\t-0.0283911671924\n'
p38
aS'38\t11.01.2016 6:10:14\t-0.0253164556962\n'
p39
aS'39\t11.01.2016 6:20:29\t-0.0191082802548\n'
p40
aS'40\t11.01.2016 6:30:14\t-0.015873015873\n'
p41
aS'41\t11.01.2016 6:40:14\t-0.0127388535032\n'
p42
aS'42\t11.01.2016 6:50:14\t-0.00952380952381\n'
p43
aS'43\t11.01.2016 7:00:14\t-0.00632911392405\n'
p44
aS'44\t11.01.2016 7:10:14\t-0.0031746031746\n'
p45
aS'45\t11.01.2016 7:20:14\t0.00952380952381\n'
p46
aS'46\t11.01.2016 7:30:14\t0.00952380952381\n'
p47
aS'47\t11.01.2016 7:40:14\t0.0127388535032\n'
p48
aS'48\t11.01.2016 7:50:14\t0.0223642172524\n'
p49
aS'49\t11.01.2016 8:00:14\t0.0223642172524\n'
p50
aS'50\t11.01.2016 8:10:14\t0.031847133758\n'
p51
aS'51\t11.01.2016 8:20:14\t0.0285714285714\n'
p52
aS'52\t11.01.2016 8:30:14\t0.031847133758\n'
p53
aS'53\t11.01.2016 8:40:14\t0.031847133758\n'
p54
aS'54\t11.01.2016 8:50:14\t0.031847133758\n'
p55
aS'55\t11.01.2016 9:00:14\t0.031847133758\n'
p56
aS'56\t11.01.2016 9:10:13\t0.031847133758\n'
p57
aS'57\t11.01.2016 9:20:13\t0.0351437699681\n'
p58
aS'58\t11.01.2016 9:30:14\t0.0445859872611\n'
p59
aS'59\t11.01.2016 9:40:14\t0.0412698412698\n'
p60
aS'60\t11.01.2016 9:50:13\t0.0412698412698\n'
p61
aS'61\t11.01.2016 10:00:13\t0.0445859872611\n'
p62
aS'62\t11.01.2016 10:10:13\t0.0479233226837\n'
p63
aS'63\t11.01.2016 10:20:13\t0.0509554140127\n'
p64
aS'64\t11.01.2016 10:30:13\t0.0509554140127\n'
p65
aS'65\t11.01.2016 10:40:13\t0.0539682539683\n'
p66
aS'66\t11.01.2016 10:50:13\t0.0509554140127\n'
p67
aS'67\t11.01.2016 11:00:13\t0.0573248407643\n'
p68
aS'68\t11.01.2016 11:10:30\t0.0539682539683\n'
p69
aS'69\t11.01.2016 11:20:13\t0.0573248407643\n'
p70
aS'70\t11.01.2016 11:30:13\t0.0603174603175\n'
p71
aS'71\t11.01.2016 11:40:13\t0.0573248407643\n'
p72
aS'72\t11.01.2016 11:50:13\t0.0573248407643\n'
p73
aS'73\t11.01.2016 12:00:13\t0.0573248407643\n'
p74
aS'74\t11.01.2016 12:10:13\t0.0603174603175\n'
p75
aS'75\t11.01.2016 12:20:13\t0.0603174603175\n'
p76
aS'76\t11.01.2016 12:30:13\t0.0603174603175\n'
p77
aS'77\t11.01.2016 12:40:13\t0.0670926517572\n'
p78
aS'78\t11.01.2016 12:50:13\t0.0603174603175\n'
p79
aS'79\t11.01.2016 13:00:13\t0.0603174603175\n'
p80
aS'80\t11.01.2016 13:10:13\t0.0641025641026\n'
p81
aS'81\t11.01.2016 13:20:13\t0.0610932475884\n'
p82
aS'82\t11.01.2016 13:30:13\t0.0610932475884\n'
p83
aS'83\t11.01.2016 13:40:13\t0.0645161290323\n'
p84
aS'84\t11.01.2016 13:50:13\t0.0641025641026\n'
p85
aS'85\t11.01.2016 14:00:13\t0.0645161290323\n'
p86
aS'86\t11.01.2016 14:10:13\t0.0576923076923\n'
p87
aS'87\t11.01.2016 14:20:14\t0.0610932475884\n'
p88
aS'88\t11.01.2016 14:30:13\t0.0576923076923\n'
p89
aS'89\t11.01.2016 14:40:13\t0.0576923076923\n'
p90
aS'90\t11.01.2016 14:50:12\t0.0576923076923\n'
p91
aS'91\t11.01.2016 15:00:13\t0.0546623794212\n'
p92
aS'92\t11.01.2016 15:10:13\t0.0546623794212\n'
p93
aS'93\t11.01.2016 15:20:12\t0.058064516129\n'
p94
aS'94\t11.01.2016 15:30:12\t0.0546623794212\n'
p95
aS'95\t11.01.2016 15:40:12\t0.051282051282\n'
p96
aS'96\t11.01.2016 15:50:12\t0.051282051282\n'
p97
aS'97\t11.01.2016 16:00:12\t0.051282051282\n'
p98
aS'98\t11.01.2016 16:10:13\t0.0451612903226\n'
p99
aS'99\t11.01.2016 16:20:13\t0.0451612903226\n'
p100
aS'100\t11.01.2016 16:30:13\t0.0451612903226\n'
p101
aS'101\t11.01.2016 16:40:12\t0.0485436893204\n'
p102
aS'102\t11.01.2016 16:50:13\t0.0485436893204\n'
p103
aS'103\t11.01.2016 17:00:12\t0.038961038961\n'
p104
aS'104\t11.01.2016 17:10:13\t0.038961038961\n'
p105
aS'105\t11.01.2016 17:20:12\t0.0355987055016\n'
p106
aS'106\t11.01.2016 17:30:12\t0.0322580645161\n'
p107
aS'107\t11.01.2016 17:40:12\t0.0324675324675\n'
p108
aS'108\t11.01.2016 17:50:12\t0.0324675324675\n'
p109
aS'109\t11.01.2016 18:10:13\t0.012987012987\n'
p110
aS'110\t11.01.2016 18:20:12\t0.00970873786408\n'
p111
aS'111\t11.01.2016 18:30:12\t0.0032154340836\n'
p112
aS'112\t11.01.2016 18:40:12\t0.0032154340836\n'
p113
aS'113\t11.01.2016 18:50:12\t-0.00319488817892\n'
p114
aS'114\t11.01.2016 19:00:12\t-0.00636942675159\n'
p115
aS'115\t11.01.2016 19:10:12\t-0.00636942675159\n'
p116
aS'116\t11.01.2016 19:20:12\t-0.0127388535032\n'
p117
aS'117\t11.01.2016 19:30:12\t-0.0127388535032\n'
p118
aS'118\t11.01.2016 19:40:12\t-0.0127388535032\n'
p119
aS'119\t11.01.2016 19:50:12\t-0.0192307692308\n'
p120
aS'120\t11.01.2016 20:00:12\t-0.0223642172524\n'
p121
aS'121\t11.01.2016 20:10:12\t-0.0285714285714\n'
p122
aS'122\t11.01.2016 20:20:12\t-0.031847133758\n'
p123
aS'123\t11.01.2016 20:30:12\t-0.031847133758\n'
p124
aS'124\t11.01.2016 20:40:12\t-0.0382165605096\n'
p125
aS'125\t11.01.2016 20:50:28\t-0.0382165605096\n'
p126
aS'126\t11.01.2016 21:00:12\t-0.0382165605096\n'
p127
aS'127\t11.01.2016 21:10:12\t-0.0506329113924\n'
p128
aS'128\t11.01.2016 21:20:12\t-0.0539682539683\n'
p129
aS'129\t11.01.2016 21:30:11\t-0.0573248407643\n'
p130
aS'130\t11.01.2016 21:40:12\t-0.0632911392405\n'
p131
aS'131\t11.01.2016 21:50:11\t-0.0696202531646\n'
p132
aS'132\t11.01.2016 22:00:11\t-0.0670926517572\n'
p133
aS'133\t11.01.2016 22:10:11\t-0.0696202531646\n'
p134
aS'134\t11.01.2016 22:20:11\t-0.0607028753994\n'
p135
aS'135\t11.01.2016 22:30:11\t-0.0607028753994\n'
p136
aS'136\t11.01.2016 22:40:11\t-0.0636942675159\n'
p137
aS'137\t11.01.2016 22:50:11\t-0.0670926517572\n'
p138
aS'138\t11.01.2016 23:00:11\t-0.0705128205128\n'
p139
aS'139\t11.01.2016 23:10:11\t-0.0705128205128\n'
p140
aS'140\t11.01.2016 23:20:11\t-0.0705128205128\n'
p141
aS'141\t11.01.2016 23:30:11\t-0.0739549839228\n'
p142
aS'142\t11.01.2016 23:40:11\t-0.0769230769231\n'
p143
aS'143\t11.01.2016 23:50:11\t-0.08038585209\n'
p144
aS'144\t12.01.2016 0:00:11\t-0.08038585209\n'
p145
aS'145\t12.01.2016 0:10:11\t-0.08038585209\n'
p146
aS'146\t12.01.2016 0:20:11\t-0.0833333333333\n'
p147
aS'147\t12.01.2016 0:30:11\t-0.0709677419355\n'
p148
aS'148\t12.01.2016 0:40:11\t-0.0709677419355\n'
p149
aS'149\t12.01.2016 0:50:12\t-0.0709677419355\n'
p150
aS'150\t12.01.2016 1:00:11\t-0.0709677419355\n'
p151
aS'151\t12.01.2016 1:10:11\t-0.0709677419355\n'
p152
aS'152\t12.01.2016 1:20:11\t-0.0516129032258\n'
p153
aS'153\t12.01.2016 1:30:27\t-0.0454545454545\n'
p154
aS'154\t12.01.2016 1:40:11\t-0.0451612903226\n'
p155
aS'155\t12.01.2016 1:50:11\t-0.0387096774194\n'
p156
aS'156\t12.01.2016 2:00:13\t-0.038961038961\n'
p157
aS'157\t12.01.2016 2:10:11\t-0.0293159609121\n'
p158
aS'158\t12.01.2016 2:20:11\t-0.025974025974\n'
p159
aS'159\t12.01.2016 2:30:11\t-0.0289389067524\n'
p160
aS'160\t12.01.2016 2:40:11\t-0.0258064516129\n'
p161
aS'161\t12.01.2016 2:50:11\t-0.016077170418\n'
p162
aS'162\t12.01.2016 3:00:11\t-0.016077170418\n'
p163
aS'163\t12.01.2016 3:10:11\t-0.0129032258065\n'
p164
aS'164\t12.01.2016 3:20:11\t-0.00641025641026\n'
p165
aS'165\t12.01.2016 3:30:11\t-0.00319488817891\n'
p166
aS'166\t12.01.2016 3:40:11\t-0.0032154340836\n'
p167
aS'167\t12.01.2016 3:50:11\t0.0032154340836\n'
p168
aS'168\t12.01.2016 4:00:11\t0.0032154340836\n'
p169
aS'169\t12.01.2016 4:10:11\t0.00641025641026\n'
p170
aS'170\t12.01.2016 4:20:10\t0.00636942675159\n'
p171
aS'171\t12.01.2016 4:30:10\t0.0127388535032\n'
p172
aS'172\t12.01.2016 4:40:11\t0.0159744408946\n'
p173
aS'173\t12.01.2016 4:50:10\t0.0223642172524\n'
p174
aS'174\t12.01.2016 5:00:11\t0.0223642172524\n'
p175
aS'175\t12.01.2016 5:10:11\t0.025641025641\n'
p176
aS'176\t12.01.2016 5:20:10\t0.0320512820513\n'
p177
aS'177\t12.01.2016 5:30:10\t0.0353697749196\n'
p178
aS'178\t12.01.2016 5:40:10\t0.0353697749196\n'
p179
aS'179\t12.01.2016 5:50:10\t0.0415335463259\n'
p180
aS'180\t12.01.2016 6:00:10\t0.0509554140127\n'
p181
aS'181\t12.01.2016 6:10:10\t0.0509554140127\n'
p182
aS'182\t12.01.2016 6:20:25\t0.0543130990415\n'
p183
aS'183\t12.01.2016 6:30:10\t0.0607028753994\n'
p184
aS'184\t12.01.2016 6:40:10\t0.0670926517572\n'
p185
aS'185\t12.01.2016 6:50:10\t0.0700636942675\n'
p186
aS'186\t12.01.2016 7:00:10\t0.0700636942675\n'
p187
aS'187\t12.01.2016 7:10:10\t0.0793650793651\n'
p188
aS'188\t12.01.2016 7:20:10\t0.0828025477707\n'
p189
aS'189\t12.01.2016 7:30:10\t0.0862619808307\n'
p190
aS'190\t12.01.2016 7:40:10\t0.0891719745223\n'
p191
aS'191\t12.01.2016 7:50:10\t0.0955414012739\n'
p192
aS'192\t12.01.2016 8:00:10\t0.0984126984127\n'
p193
aS'193\t12.01.2016 8:10:10\t0.0984126984127\n'
p194
aS'194\t12.01.2016 8:20:10\t0.108280254777\n'
p195
aS'195\t12.01.2016 8:30:10\t0.111111111111\n'
p196
aS'196\t12.01.2016 8:40:10\t0.114649681529\n'
p197
aS'197\t12.01.2016 8:50:10\t0.114649681529\n'
p198
aS'198\t12.01.2016 9:00:10\t0.120253164557\n'
p199
aS'199\t12.01.2016 9:10:10\t0.114649681529\n'
p200
aS'200\t12.01.2016 9:20:10\t0.114649681529\n'
p201
aS'201\t12.01.2016 9:30:10\t0.11821086262\n'
p202
aS'202\t12.01.2016 9:40:10\t0.12380952381\n'
p203
aS'203\t12.01.2016 9:50:12\t0.12101910828\n'
p204
aS'204\t12.01.2016 10:00:10\t0.12380952381\n'
p205
aS'205\t12.01.2016 10:10:10\t0.116719242902\n'
p206
aS'206\t12.01.2016 10:20:10\t0.113924050633\n'
p207
aS'207\t12.01.2016 10:30:10\t0.110410094637\n'
p208
aS'208\t12.01.2016 10:40:10\t0.110410094637\n'
p209
aS'209\t12.01.2016 10:50:10\t0.107594936709\n'
p210
aS'210\t12.01.2016 11:00:10\t0.104761904762\n'
p211
aS'211\t12.01.2016 11:10:26\t0.0977917981073\n'
p212
aS'212\t12.01.2016 11:20:10\t0.0949367088608\n'
p213
aS'213\t12.01.2016 11:30:10\t0.0949367088608\n'
p214
aS'214\t12.01.2016 11:40:10\t0.0914826498423\n'
p215
aS'215\t12.01.2016 11:50:10\t0.0886075949367\n'
p216
aS'216\t12.01.2016 12:00:10\t0.0851735015773\n'
p217
aS'217\t12.01.2016 12:10:10\t0.0822784810127\n'
p218
aS'218\t12.01.2016 12:20:10\t0.0798722044728\n'
p219
aS'219\t12.01.2016 12:30:09\t0.073482428115\n'
p220
aS'220\t12.01.2016 12:40:10\t0.0730158730159\n'
p221
aS'221\t12.01.2016 12:50:09\t0.0700636942675\n'
p222
aS'222\t12.01.2016 13:00:09\t0.0636942675159\n'
p223
aS'223\t12.01.2016 13:10:09\t0.0607028753994\n'
p224
aS'224\t12.01.2016 13:20:09\t0.0607028753994\n'
p225
aS'225\t12.01.2016 13:30:09\t0.0543130990415\n'
p226
aS'226\t12.01.2016 13:40:09\t0.0509554140127\n'
p227
aS'227\t12.01.2016 13:50:09\t0.0509554140127\n'
p228
aS'228\t12.01.2016 14:00:09\t0.0509554140127\n'
p229
aS'229\t12.01.2016 14:10:09\t0.0415335463259\n'
p230
aS'230\t12.01.2016 14:20:09\t0.0415335463259\n'
p231
aS'231\t12.01.2016 14:30:09\t0.0382165605096\n'
p232
aS'232\t12.01.2016 14:40:09\t0.035143769968\n'
p233
aS'233\t12.01.2016 14:50:09\t0.031847133758\n'
p234
aS'234\t12.01.2016 15:00:09\t0.0287539936102\n'
p235
aS'235\t12.01.2016 15:10:09\t0.025641025641\n'
p236
aS'236\t12.01.2016 15:20:09\t0.0223642172524\n'
p237
aS'237\t12.01.2016 15:30:09\t0.0223642172524\n'
p238
aS'238\t12.01.2016 15:40:09\t0.0192307692308\n'
p239
aS'239\t12.01.2016 15:50:09\t0.0192307692308\n'
p240
aS'240\t12.01.2016 16:00:09\t0.015873015873\n'
p241
aS'241\t12.01.2016 16:10:09\t0.0128205128205\n'
p242
aS'242\t12.01.2016 16:20:09\t0.00958466453674\n'
p243
aS'243\t12.01.2016 16:30:09\t0.00636942675159\n'
p244
aS'244\t12.01.2016 16:40:09\t0.00636942675159\n'
p245
aS'245\t12.01.2016 16:50:09\t0.00319488817891\n'
p246
aS'246\t12.01.2016 17:00:09\t-1.62608779944e-15\n'
p247
aS'247\t12.01.2016 17:10:08\t-0.00641025641026\n'
p248
aS'248\t12.01.2016 17:20:09\t-0.0127388535032\n'
p249
aS'249\t12.01.2016 17:30:08\t-0.0128205128205\n'
p250
aS'250\t12.01.2016 17:40:08\t-0.0192307692308\n'
p251
aS'251\t12.01.2016 17:50:08\t-0.016077170418\n'
p252
aS'252\t12.01.2016 18:00:09\t-0.0223642172524\n'
p253
aS'253\t12.01.2016 18:10:08\t-0.0289389067524\n'
p254
aS'254\t12.01.2016 18:20:08\t-0.0320512820513\n'
p255
aS'255\t12.01.2016 18:30:08\t-0.0353697749196\n'
p256
aS'256\t12.01.2016 18:40:08\t-0.0387096774194\n'
p257
aS'257\t12.01.2016 18:50:08\t-0.0387096774194\n'
p258
aS'258\t12.01.2016 19:00:08\t-0.0451612903226\n'
p259
aS'259\t12.01.2016 19:10:08\t-0.048231511254\n'
p260
aS'260\t12.01.2016 19:20:08\t-0.0485436893204\n'
p261
aS'261\t12.01.2016 19:30:08\t-0.0512820512821\n'
p262
aS'262\t12.01.2016 19:40:08\t-0.0546623794212\n'
p263
aS'263\t12.01.2016 19:50:08\t-0.058064516129\n'
p264
aS'264\t12.01.2016 20:00:08\t-0.0550161812298\n'
p265
aS'265\t12.01.2016 20:10:08\t-0.058064516129\n'
p266
aS'266\t12.01.2016 20:20:08\t-0.0584415584416\n'
p267
aS'267\t12.01.2016 20:30:08\t-0.0618892508143\n'
p268
aS'268\t12.01.2016 20:40:08\t-0.0679611650485\n'
p269
aS'269\t12.01.2016 20:50:25\t-0.0576923076923\n'
p270
aS'270\t12.01.2016 21:00:08\t-0.0607028753994\n'
p271
aS'271\t12.01.2016 21:10:08\t-0.0641025641026\n'
p272
aS'272\t12.01.2016 21:20:08\t-0.0641025641026\n'
p273
aS'273\t12.01.2016 21:30:08\t-0.0641025641026\n'
p274
aS'274\t12.01.2016 21:40:08\t-0.0641025641026\n'
p275
aS'275\t12.01.2016 21:50:08\t-0.0670926517572\n'
p276
aS'276\t12.01.2016 22:00:08\t-0.0670926517572\n'
p277
aS'277\t12.01.2016 22:10:08\t-0.0705128205128\n'
p278
aS'278\t12.01.2016 22:20:08\t-0.0705128205128\n'
p279
aS'279\t12.01.2016 22:30:08\t-0.0700636942675\n'
p280
aS'280\t12.01.2016 22:40:08\t-0.0700636942675\n'
p281
aS'281\t12.01.2016 22:50:08\t-0.0700636942675\n'
p282
aS'282\t12.01.2016 23:00:08\t-0.0700636942675\n'
p283
aS'283\t12.01.2016 23:10:08\t-0.0607028753994\n'
p284
aS'284\t12.01.2016 23:20:08\t-0.0576923076923\n'
p285
aS'285\t12.01.2016 23:30:08\t-0.0576923076923\n'
p286
aS'286\t12.01.2016 23:40:07\t-0.0576923076923\n'
p287
aS'287\t12.01.2016 23:50:07\t-0.0576923076923\n'
p288
aS'288\t13.01.2016 0:00:08\t-0.0576923076923\n'
p289
aS'289\t13.01.2016 0:10:07\t-0.0576923076923\n'
p290
aS'290\t13.01.2016 0:20:07\t-0.0543130990415\n'
p291
aS'291\t13.01.2016 0:30:07\t-0.0543130990415\n'
p292
aS'292\t13.01.2016 0:40:07\t-0.0573248407643\n'
p293
aS'293\t13.01.2016 0:50:07\t-0.0539682539683\n'
p294
aS'294\t13.01.2016 1:00:07\t-0.0539682539683\n'
p295
aS'295\t13.01.2016 1:10:07\t-0.0509554140127\n'
p296
aS'296\t13.01.2016 1:20:07\t-0.0479233226837\n'
p297
aS'297\t13.01.2016 1:30:23\t-0.0479233226837\n'
p298
aS'298\t13.01.2016 1:40:07\t-0.0479233226837\n'
p299
aS'299\t13.01.2016 1:50:07\t-0.0479233226837\n'
p300
aS'300\t13.01.2016 2:00:07\t-0.0448717948718\n'
p301
aS'301\t13.01.2016 2:10:07\t-0.0418006430868\n'
p302
aS'302\t13.01.2016 2:20:07\t-0.035143769968\n'
p303
aS'303\t13.01.2016 2:30:07\t-0.0320512820513\n'
p304
aS'304\t13.01.2016 2:40:07\t-0.0287539936102\n'
p305
aS'305\t13.01.2016 2:50:07\t-0.025641025641\n'
p306
aS'306\t13.01.2016 3:00:07\t-0.0159744408946\n'
p307
aS'307\t13.01.2016 3:10:07\t-0.0159744408946\n'
p308
aS'308\t13.01.2016 3:20:07\t-0.00636942675159\n'
p309
aS'309\t13.01.2016 3:30:07\t-0.00636942675159\n'
p310
aS'310\t13.01.2016 3:40:07\t-3.61352844321e-17\n'
p311
aS'311\t13.01.2016 3:50:07\t0.0031746031746\n'
p312
aS'312\t13.01.2016 4:00:07\t0.00636942675159\n'
p313
aS'313\t13.01.2016 4:10:07\t0.0127388535032\n'
p314
aS'314\t13.01.2016 4:20:07\t0.015873015873\n'
p315
aS'315\t13.01.2016 4:30:07\t0.0222222222222\n'
p316
aS'316\t13.01.2016 4:40:07\t0.0222222222222\n'
p317
aS'317\t13.01.2016 4:50:07\t0.0316455696203\n'
p318
aS'318\t13.01.2016 5:00:07\t0.0382165605096\n'
p319
aS'319\t13.01.2016 5:10:07\t0.0382165605096\n'
p320
aS'320\t13.01.2016 5:20:07\t0.0445859872611\n'
p321
aS'321\t13.01.2016 5:30:07\t0.0479233226837\n'
p322
aS'322\t13.01.2016 5:40:07\t0.0479233226837\n'
p323
aS'323\t13.01.2016 5:50:07\t0.0543130990415\n'
p324
aS'324\t13.01.2016 6:00:07\t0.0573248407643\n'
p325
aS'325\t13.01.2016 6:10:07\t0.0636942675159\n'
p326
aS'326\t13.01.2016 6:20:23\t0.0670926517572\n'
p327
aS'327\t13.01.2016 6:30:07\t0.0670926517572\n'
p328
aS'328\t13.01.2016 6:40:07\t0.0705128205128\n'
p329
aS'329\t13.01.2016 6:50:06\t0.073482428115\n'
p330
aS'330\t13.01.2016 7:00:07\t0.0798722044728\n'
p331
aS'331\t13.01.2016 7:10:06\t0.0833333333333\n'
p332
aS'332\t13.01.2016 7:20:07\t0.0868167202572\n'
p333
aS'333\t13.01.2016 7:30:07\t0.0897435897436\n'
p334
aS'334\t13.01.2016 7:40:06\t0.0897435897436\n'
p335
aS'335\t13.01.2016 7:50:06\t0.0897435897436\n'
p336
aS'336\t13.01.2016 8:00:06\t0.0932475884244\n'
p337
aS'337\t13.01.2016 8:10:06\t0.0990415335463\n'
p338
aS'338\t13.01.2016 8:20:06\t0.0961538461538\n'
p339
aS'339\t13.01.2016 8:30:06\t0.0961538461538\n'
p340
aS'340\t13.01.2016 8:40:06\t0.105431309904\n'
p341
aS'341\t13.01.2016 8:50:06\t0.105431309904\n'
p342
aS'342\t13.01.2016 9:00:06\t0.105431309904\n'
p343
aS'343\t13.01.2016 9:10:06\t0.111821086262\n'
p344
aS'344\t13.01.2016 9:20:06\t0.115384615385\n'
p345
aS'345\t13.01.2016 9:30:06\t0.12101910828\n'
p346
aS'346\t13.01.2016 9:40:06\t0.118971061093\n'
p347
aS'347\t13.01.2016 9:50:06\t0.124600638978\n'
p348
aS'348\t13.01.2016 10:00:06\t0.121794871795\n'
p349
aS'349\t13.01.2016 10:10:06\t0.132686084142\n'
p350
aS'350\t13.01.2016 10:20:06\t0.135483870968\n'
p351
aS'351\t13.01.2016 10:30:06\t0.139158576052\n'
p352
aS'352\t13.01.2016 10:40:06\t0.139158576052\n'
p353
aS'353\t13.01.2016 10:50:06\t0.141935483871\n'
p354
aS'354\t13.01.2016 11:00:06\t0.141935483871\n'
p355
aS'355\t13.01.2016 11:10:22\t0.141935483871\n'
p356
aS'356\t13.01.2016 11:20:06\t0.149350649351\n'
p357
aS'357\t13.01.2016 11:30:06\t0.141935483871\n'
p358
aS'358\t13.01.2016 11:40:06\t0.144694533762\n'
p359
aS'359\t13.01.2016 11:50:06\t0.144694533762\n'
p360
aS'360\t13.01.2016 12:00:06\t0.144694533762\n'
p361
aS'361\t13.01.2016 12:10:06\t0.144694533762\n'
p362
aS'362\t13.01.2016 12:20:05\t0.144694533762\n'
p363
aS'363\t13.01.2016 12:30:05\t0.135483870968\n'
p364
aS'364\t13.01.2016 12:40:05\t0.131832797428\n'
p365
aS'365\t13.01.2016 12:50:05\t0.129032258065\n'
p366
aS'366\t13.01.2016 13:00:05\t0.129032258065\n'
p367
aS'367\t13.01.2016 13:10:05\t0.129032258065\n'
p368
aS'368\t13.01.2016 13:20:05\t0.126213592233\n'
p369
aS'369\t13.01.2016 13:30:06\t0.12540192926\n'
p370
aS'370\t13.01.2016 13:40:06\t0.118971061093\n'
p371
aS'371\t13.01.2016 13:50:06\t0.119741100324\n'
p372
aS'372\t13.01.2016 14:00:06\t0.116129032258\n'
p373
aS'373\t13.01.2016 14:10:05\t0.116129032258\n'
p374
aS'374\t13.01.2016 14:20:05\t0.112540192926\n'
p375
aS'375\t13.01.2016 14:30:05\t0.109677419355\n'
p376
aS'376\t13.01.2016 14:40:05\t0.109677419355\n'
p377
aS'377\t13.01.2016 14:50:05\t0.102564102564\n'
p378
aS'378\t13.01.2016 15:00:05\t0.0996784565916\n'
p379
aS'379\t13.01.2016 15:10:05\t0.0967741935484\n'
p380
aS'380\t13.01.2016 15:20:05\t0.0967741935484\n'
p381
aS'381\t13.01.2016 15:30:05\t0.0903225806452\n'
p382
aS'382\t13.01.2016 15:40:05\t0.0903225806452\n'
p383
aS'383\t13.01.2016 15:50:05\t0.0838709677419\n'
p384
aS'384\t13.01.2016 16:00:05\t0.08038585209\n'
p385
aS'385\t13.01.2016 16:10:05\t0.0774193548387\n'
p386
aS'386\t13.01.2016 16:20:05\t0.0739549839228\n'
p387
aS'387\t13.01.2016 16:30:05\t0.0679611650485\n'
p388
aS'388\t13.01.2016 16:40:05\t0.0649350649351\n'
p389
aS'389\t13.01.2016 16:50:05\t0.058064516129\n'
p390
aS'390\t13.01.2016 17:00:05\t0.058064516129\n'
p391
aS'391\t13.01.2016 17:10:05\t0.0485436893204\n'
p392
aS'392\t13.01.2016 17:20:05\t0.0454545454545\n'
p393
aS'393\t13.01.2016 17:30:05\t0.0322580645161\n'
p394
aS'394\t13.01.2016 17:40:05\t0.025641025641\n'
p395
aS'395\t13.01.2016 17:50:05\t0.0225080385852\n'
p396
aS'396\t13.01.2016 18:00:05\t0.0129032258065\n'
p397
aS'397\t13.01.2016 18:10:05\t0.00970873786408\n'
p398
aS'398\t13.01.2016 18:20:05\t-0.00645161290323\n'
p399
aS'399\t13.01.2016 18:30:05\t-0.00645161290323\n'
p400
aS'400\t13.01.2016 18:40:05\t-0.0129032258065\n'
p401
aS'401\t13.01.2016 18:50:05\t-0.0161812297735\n'
p402
aS'402\t13.01.2016 19:00:05\t-0.0225080385852\n'
p403
aS'403\t13.01.2016 19:10:05\t-0.0258064516129\n'
p404
aS'404\t13.01.2016 19:20:05\t-0.0289389067524\n'
p405
aS'405\t13.01.2016 19:30:04\t-0.0387096774194\n'
p406
aS'406\t13.01.2016 19:40:04\t-0.0448717948718\n'
p407
aS'407\t13.01.2016 19:50:04\t-0.048231511254\n'
p408
aS'408\t13.01.2016 20:00:04\t-0.0576923076923\n'
p409
aS'409\t13.01.2016 20:10:04\t-0.0614886731392\n'
p410
aS'410\t13.01.2016 20:20:04\t-0.0709677419355\n'
p411
aS'411\t13.01.2016 20:30:04\t-0.0709677419355\n'
p412
aS'412\t13.01.2016 20:40:04\t-0.0774193548387\n'
p413
aS'413\t13.01.2016 20:50:22\t-0.0809061488673\n'
p414
aS'414\t13.01.2016 21:00:04\t-0.0675241157556\n'
p415
aS'415\t13.01.2016 21:10:04\t-0.0645161290323\n'
p416
aS'416\t13.01.2016 21:20:04\t-0.0675241157556\n'
p417
aS'417\t13.01.2016 21:30:04\t-0.0709677419355\n'
p418
aS'418\t13.01.2016 21:40:04\t-0.0649350649351\n'
p419
aS'419\t13.01.2016 21:50:04\t-0.058064516129\n'
p420
aS'420\t13.01.2016 22:00:04\t-0.0550161812298\n'
p421
aS'421\t13.01.2016 22:10:04\t-0.058064516129\n'
p422
aS'422\t13.01.2016 22:20:04\t-0.058064516129\n'
p423
aS'423\t13.01.2016 22:30:04\t-0.0550161812298\n'
p424
aS'424\t13.01.2016 22:40:04\t-0.0550161812298\n'
p425
aS'425\t13.01.2016 22:50:04\t-0.0516129032258\n'
p426
aS'426\t13.01.2016 23:00:04\t-0.0516129032258\n'
p427
aS'427\t13.01.2016 23:10:04\t-0.0516129032258\n'
p428
aS'428\t13.01.2016 23:20:04\t-0.0516129032258\n'
p429
aS'429\t13.01.2016 23:30:04\t-0.0516129032258\n'
p430
aS'430\t13.01.2016 23:40:04\t-0.0485436893204\n'
p431
aS'431\t13.01.2016 23:50:04\t-0.0516129032258\n'
p432
aS'432\t14.01.2016 0:00:04\t-0.0485436893204\n'
p433
aS'433\t14.01.2016 0:10:04\t-0.0387096774194\n'
p434
aS'434\t14.01.2016 0:20:04\t-0.042071197411\n'
p435
aS'435\t14.01.2016 0:30:04\t-0.0387096774194\n'
p436
aS'436\t14.01.2016 0:40:04\t-0.0387096774194\n'
p437
aS'437\t14.01.2016 0:50:04\t-0.0387096774194\n'
p438
aS'438\t14.01.2016 1:00:04\t-0.0387096774194\n'
p439
aS'439\t14.01.2016 1:10:04\t-0.0353697749196\n'
p440
aS'440\t14.01.2016 1:20:04\t-0.0322580645161\n'
p441
aS'441\t14.01.2016 1:30:20\t-0.0289389067524\n'
p442
aS'442\t14.01.2016 1:40:04\t-0.0322580645161\n'
p443
aS'443\t14.01.2016 1:50:04\t-0.0289389067524\n'
p444
aS'444\t14.01.2016 2:00:03\t-0.025641025641\n'
p445
aS'445\t14.01.2016 2:10:04\t-0.0225080385852\n'
p446
aS'446\t14.01.2016 2:20:03\t-0.0225080385852\n'
p447
aS'447\t14.01.2016 2:30:03\t-0.0225080385852\n'
p448
aS'448\t14.01.2016 2:40:03\t-0.0129032258065\n'
p449
aS'449\t14.01.2016 2:50:03\t-0.0129032258065\n'
p450
aS'450\t14.01.2016 3:00:03\t-0.0096463022508\n'
p451
aS'451\t14.01.2016 3:10:03\t-0.0032154340836\n'
p452
aS'452\t14.01.2016 3:20:03\t-1.6470695775e-15\n'
p453
aS'453\t14.01.2016 3:30:03\t0.00323624595469\n'
p454
aS'454\t14.01.2016 3:40:03\t0.00323624595469\n'
p455
aS'455\t14.01.2016 3:50:03\t0.00645161290323\n'
p456
aS'456\t14.01.2016 4:00:03\t0.00645161290323\n'
p457
aS'457\t14.01.2016 4:10:03\t0.0096463022508\n'
p458
aS'458\t14.01.2016 4:20:03\t0.0096463022508\n'
p459
aS'459\t14.01.2016 4:30:03\t0.016077170418\n'
p460
aS'460\t14.01.2016 4:40:03\t0.016077170418\n'
p461
aS'461\t14.01.2016 4:50:03\t0.016077170418\n'
p462
aS'462\t14.01.2016 5:00:03\t0.0193548387097\n'
p463
aS'463\t14.01.2016 5:10:03\t0.0289389067524\n'
p464
aS'464\t14.01.2016 5:20:03\t0.0258064516129\n'
p465
aS'465\t14.01.2016 5:30:03\t0.0289389067524\n'
p466
aS'466\t14.01.2016 5:40:03\t0.0320512820513\n'
p467
aS'467\t14.01.2016 5:50:03\t0.0320512820513\n'
p468
aS'468\t14.01.2016 6:00:03\t0.035143769968\n'
p469
aS'469\t14.01.2016 6:10:03\t0.0353697749196\n'
p470
aS'470\t14.01.2016 6:20:19\t0.0353697749196\n'
p471
aS'471\t14.01.2016 6:30:03\t0.0415335463259\n'
p472
aS'472\t14.01.2016 6:40:03\t0.042071197411\n'
p473
aS'473\t14.01.2016 6:50:03\t0.048231511254\n'
p474
aS'474\t14.01.2016 7:00:03\t0.048231511254\n'
p475
aS'475\t14.01.2016 7:10:03\t0.0546623794212\n'
p476
aS'476\t14.01.2016 7:20:03\t0.0546623794212\n'
p477
aS'477\t14.01.2016 7:30:03\t0.0546623794212\n'
p478
aS'478\t14.01.2016 7:40:02\t0.0576923076923\n'
p479
aS'479\t14.01.2016 7:50:03\t0.0675241157556\n'
p480
aS'480\t14.01.2016 8:00:03\t0.0675241157556\n'
p481
aS'481\t14.01.2016 8:10:03\t0.0675241157556\n'
p482
aS'482\t14.01.2016 8:20:03\t0.0739549839228\n'
p483
aS'483\t14.01.2016 8:30:03\t0.0769230769231\n'
p484
aS'484\t14.01.2016 8:40:03\t0.0769230769231\n'
p485
aS'485\t14.01.2016 8:50:03\t0.0833333333333\n'
p486
aS'486\t14.01.2016 9:00:03\t0.0833333333333\n'
p487
aS'487\t14.01.2016 9:10:03\t0.0868167202572\n'
p488
aS'488\t14.01.2016 9:20:02\t0.0868167202572\n'
p489
aS'489\t14.01.2016 9:30:03\t0.0903225806452\n'
p490
aS'490\t14.01.2016 9:40:02\t0.0932475884244\n'
p491
aS'491\t14.01.2016 9:50:02\t0.0932475884244\n'
p492
aS'492\t14.01.2016 10:00:02\t0.0932475884244\n'
p493
aS'493\t14.01.2016 10:10:03\t0.0967741935484\n'
p494
aS'494\t14.01.2016 10:20:02\t0.0967741935484\n'
p495
aS'495\t14.01.2016 10:30:02\t0.0996784565916\n'
p496
aS'496\t14.01.2016 10:40:02\t0.102564102564\n'
p497
aS'497\t14.01.2016 10:50:02\t0.102564102564\n'
p498
aS'498\t14.01.2016 11:00:02\t0.102564102564\n'
p499
aS'499\t14.01.2016 11:10:18\t0.106109324759\n'
p500
aS'500\t14.01.2016 11:20:02\t0.106109324759\n'
p501
aS'501\t14.01.2016 11:30:02\t0.106109324759\n'
p502
aS'502\t14.01.2016 11:40:02\t0.106109324759\n'
p503
aS'503\t14.01.2016 11:50:02\t0.109677419355\n'
p504
aS'504\t14.01.2016 12:00:02\t0.109677419355\n'
p505
aS'505\t14.01.2016 12:10:02\t0.109677419355\n'
p506
aS'506\t14.01.2016 12:20:02\t0.109677419355\n'
p507
aS'507\t14.01.2016 12:30:02\t0.109677419355\n'
p508
aS'508\t14.01.2016 12:40:02\t0.109677419355\n'
p509
aS'509\t14.01.2016 12:50:02\t0.109677419355\n'
p510
aS'510\t14.01.2016 13:00:02\t0.109677419355\n'
p511
aS'511\t14.01.2016 13:10:02\t0.109677419355\n'
p512
aS'512\t14.01.2016 13:20:02\t0.109677419355\n'
p513
aS'513\t14.01.2016 13:30:02\t0.106109324759\n'
p514
aS'514\t14.01.2016 13:40:02\t0.106109324759\n'
p515
aS'515\t14.01.2016 13:50:02\t0.106796116505\n'
p516
aS'516\t14.01.2016 14:00:02\t0.103225806452\n'
p517
aS'517\t14.01.2016 14:10:02\t0.103225806452\n'
p518
aS'518\t14.01.2016 14:20:02\t0.103225806452\n'
p519
aS'519\t14.01.2016 14:30:02\t0.0996784565916\n'
p520
aS'520\t14.01.2016 14:40:02\t0.0967741935484\n'
p521
aS'521\t14.01.2016 14:50:03\t0.0967741935484\n'
p522
aS'522\t14.01.2016 15:00:03\t0.0967741935484\n'
p523
aS'523\t14.01.2016 15:10:03\t0.0967741935484\n'
p524
aS'524\t14.01.2016 15:20:03\t0.0938511326861\n'
p525
aS'525\t14.01.2016 15:30:03\t0.0938511326861\n'
p526
aS'526\t14.01.2016 15:40:03\t0.0903225806452\n'
p527
aS'527\t14.01.2016 15:50:03\t0.0903225806452\n'
p528
aS'528\t14.01.2016 16:00:21\t0.0903225806452\n'
p529
aS'529\t14.01.2016 16:10:03\t0.0868167202572\n'
p530
aS'530\t14.01.2016 16:20:04\t0.0809061488673\n'
p531
aS'531\t14.01.2016 16:30:04\t0.0809061488673\n'
p532
aS'532\t14.01.2016 16:40:04\t0.0774193548387\n'
p533
aS'533\t14.01.2016 16:50:04\t0.0774193548387\n'
p534
aS'534\t14.01.2016 17:00:05\t0.0774193548387\n'
p535
aS'535\t14.01.2016 17:10:05\t0.0744336569579\n'
p536
aS'536\t14.01.2016 17:20:05\t0.0675241157556\n'
p537
aS'537\t14.01.2016 17:30:05\t0.0641025641026\n'
p538
aS'538\t14.01.2016 17:40:05\t0.058064516129\n'
p539
aS'539\t14.01.2016 17:50:06\t0.0641025641026\n'
p540
aS'540\t14.01.2016 18:00:06\t0.048231511254\n'
p541
aS'541\t14.01.2016 18:10:06\t0.0448717948718\n'
p542
aS'542\t14.01.2016 18:20:06\t0.0415335463259\n'
p543
aS'543\t14.01.2016 18:30:06\t0.0351437699681\n'
p544
aS'544\t14.01.2016 18:40:06\t0.0322580645161\n'
p545
aS'545\t14.01.2016 18:50:07\t0.0289389067524\n'
p546
aS'546\t14.01.2016 19:00:06\t0.0193548387097\n'
p547
aS'547\t14.01.2016 19:10:07\t0.0193548387097\n'
p548
aS'548\t14.01.2016 19:20:07\t0.0128205128205\n'
p549
aS'549\t14.01.2016 19:30:07\t0.0096463022508\n'
p550
aS'550\t14.01.2016 19:40:07\t0.00641025641026\n'
p551
aS'551\t14.01.2016 19:50:07\t0.0032154340836\n'
p552
aS'552\t14.01.2016 20:00:07\t0.00323624595469\n'
p553
aS'553\t14.01.2016 20:10:07\t-7.32030923333e-17\n'
p554
aS'554\t14.01.2016 20:20:08\t-7.32030923333e-17\n'
p555
aS'555\t14.01.2016 20:30:08\t-0.00964630225081\n'
p556
aS'556\t14.01.2016 20:40:08\t-0.0096463022508\n'
p557
aS'557\t14.01.2016 20:50:24\t-0.00970873786408\n'
p558
aS'558\t14.01.2016 21:00:08\t-0.0129032258065\n'
p559
aS'559\t14.01.2016 21:10:09\t-0.0129032258065\n'
p560
aS'560\t14.01.2016 21:20:09\t-0.016077170418\n'
p561
aS'561\t14.01.2016 21:30:09\t-0.016077170418\n'
p562
aS'562\t14.01.2016 21:40:09\t-0.0193548387097\n'
p563
aS'563\t14.01.2016 21:50:09\t-0.0193548387097\n'
p564
aS'564\t14.01.2016 22:00:09\t-0.0193548387097\n'
p565
aS'565\t14.01.2016 22:10:09\t-0.0193548387097\n'
p566
aS'566\t14.01.2016 22:20:10\t-0.0258064516129\n'
p567
aS'567\t14.01.2016 22:30:10\t-0.0258064516129\n'
p568
aS'568\t14.01.2016 22:40:10\t-0.0258064516129\n'
p569
aS'569\t14.01.2016 22:50:10\t-0.0291262135922\n'
p570
aS'570\t14.01.2016 23:00:10\t-0.0353697749196\n'
p571
aS'571\t14.01.2016 23:10:10\t-0.0291262135922\n'
p572
aS'572\t14.01.2016 23:20:10\t-0.0353697749196\n'
p573
aS'573\t14.01.2016 23:30:11\t-0.0353697749196\n'
p574
aS'574\t14.01.2016 23:40:11\t-0.0353697749196\n'
p575
aS'575\t14.01.2016 23:50:11\t-0.0353697749196\n'
p576
aS'576\t15.01.2016 0:00:11\t-0.0353697749196\n'
p577
aS'577\t15.01.2016 0:10:11\t-0.0353697749196\n'
p578
aS'578\t15.01.2016 0:20:12\t-0.0353697749196\n'
p579
aS'579\t15.01.2016 0:30:11\t-0.0384615384615\n'
p580
aS'580\t15.01.2016 0:40:12\t-0.0384615384615\n'
p581
aS'581\t15.01.2016 0:50:12\t-0.0353697749196\n'
p582
aS'582\t15.01.2016 1:00:12\t-0.0353697749196\n'
p583
aS'583\t15.01.2016 1:10:12\t-0.0322580645161\n'
p584
aS'584\t15.01.2016 1:20:12\t-0.0353697749196\n'
p585
aS'585\t15.01.2016 1:30:31\t-0.0322580645161\n'
p586
aS'586\t15.01.2016 1:40:12\t-0.0322580645161\n'
p587
aS'587\t15.01.2016 1:50:13\t-0.0322580645161\n'
p588
aS'588\t15.01.2016 2:00:13\t-0.0289389067524\n'
p589
aS'589\t15.01.2016 2:10:13\t-0.0322580645161\n'
p590
aS'590\t15.01.2016 2:20:14\t-0.0258064516129\n'
p591
aS'591\t15.01.2016 2:30:14\t-0.0225080385852\n'
p592
aS'592\t15.01.2016 2:40:14\t-0.0225080385852\n'
p593
aS'593\t15.01.2016 2:50:14\t-0.0225080385852\n'
p594
aS'594\t15.01.2016 3:00:14\t-0.0192307692308\n'
p595
aS'595\t15.01.2016 3:10:14\t-0.0192307692308\n'
p596
aS'596\t15.01.2016 3:20:15\t-0.016077170418\n'
p597
aS'597\t15.01.2016 3:30:15\t-0.016077170418\n'
p598
aS'598\t15.01.2016 3:40:15\t-0.0096463022508\n'
p599
aS'599\t15.01.2016 3:50:15\t-0.0096463022508\n'
p600
aS'600\t15.01.2016 4:00:15\t-0.0032154340836\n'
p601
aS'601\t15.01.2016 4:10:15\t-0.00645161290323\n'
p602
aS'602\t15.01.2016 4:20:15\t-7.27338417415e-17\n'
p603
aS'603\t15.01.2016 4:30:16\t0.0032154340836\n'
p604
aS'604\t15.01.2016 4:40:16\t0.00641025641026\n'
p605
aS'605\t15.01.2016 4:50:16\t0.00645161290323\n'
p606
aS'606\t15.01.2016 5:00:16\t0.0096463022508\n'
p607
aS'607\t15.01.2016 5:10:16\t0.016077170418\n'
p608
aS'608\t15.01.2016 5:20:16\t0.016077170418\n'
p609
aS'609\t15.01.2016 5:30:16\t0.0192307692308\n'
p610
aS'610\t15.01.2016 5:40:17\t0.0258064516129\n'
p611
aS'611\t15.01.2016 5:50:17\t0.0322580645161\n'
p612
aS'612\t15.01.2016 6:00:17\t0.0324675324675\n'
p613
aS'613\t15.01.2016 6:10:17\t0.0387096774194\n'
p614
aS'614\t15.01.2016 6:20:32\t0.0387096774194\n'
p615
aS'615\t15.01.2016 6:30:17\t0.042071197411\n'
p616
aS'616\t15.01.2016 6:40:17\t0.0516129032258\n'
p617
aS'617\t15.01.2016 6:50:18\t0.0516129032258\n'
p618
aS'618\t15.01.2016 7:00:18\t0.0550161812298\n'
p619
aS'619\t15.01.2016 7:10:18\t0.058064516129\n'
p620
aS'620\t15.01.2016 7:20:18\t0.0649350649351\n'
p621
aS'621\t15.01.2016 7:30:18\t0.0679611650485\n'
p622
aS'622\t15.01.2016 7:40:18\t0.0714285714286\n'
p623
aS'623\t15.01.2016 7:50:19\t0.0744336569579\n'
p624
aS'624\t15.01.2016 8:00:19\t0.0809061488673\n'
p625
aS'625\t15.01.2016 8:10:19\t0.0774193548387\n'
p626
aS'626\t15.01.2016 8:20:19\t0.0844155844156\n'
p627
aS'627\t15.01.2016 8:30:19\t0.0873786407767\n'
p628
aS'628\t15.01.2016 8:40:19\t0.0903225806452\n'
p629
aS'629\t15.01.2016 8:50:19\t0.0903225806452\n'
p630
aS'630\t15.01.2016 9:00:20\t0.0938511326861\n'
p631
aS'631\t15.01.2016 9:10:20\t0.0938511326861\n'
p632
aS'632\t15.01.2016 9:20:20\t0.0967741935484\n'
p633
aS'633\t15.01.2016 9:30:20\t0.0967741935484\n'
p634
aS'634\t15.01.2016 9:40:20\t0.100323624595\n'
p635
aS'635\t15.01.2016 9:50:20\t0.103225806452\n'
p636
aS'636\t15.01.2016 10:00:20\t0.106109324759\n'
p637
aS'637\t15.01.2016 10:10:21\t0.109677419355\n'
p638
aS'638\t15.01.2016 10:20:21\t0.109677419355\n'
p639
aS'639\t15.01.2016 10:30:21\t0.113268608414\n'
p640
aS'640\t15.01.2016 10:40:21\t0.113268608414\n'
p641
aS'641\t15.01.2016 10:50:21\t0.113268608414\n'
p642
aS'642\t15.01.2016 11:00:22\t0.113268608414\n'
p643
aS'643\t15.01.2016 11:10:38\t0.113268608414\n'
p644
aS'644\t15.01.2016 11:20:22\t0.116129032258\n'
p645
aS'645\t15.01.2016 11:30:22\t0.116129032258\n'
p646
aS'646\t15.01.2016 11:40:22\t0.116129032258\n'
p647
aS'647\t15.01.2016 11:50:23\t0.119741100324\n'
p648
aS'648\t15.01.2016 12:00:23\t0.118971061093\n'
p649
aS'649\t15.01.2016 12:10:23\t0.122580645161\n'
p650
aS'650\t15.01.2016 12:20:23\t0.122580645161\n'
p651
aS'651\t15.01.2016 12:30:23\t0.122580645161\n'
p652
aS'652\t15.01.2016 12:40:23\t0.122580645161\n'
p653
aS'653\t15.01.2016 12:50:23\t0.122580645161\n'
p654
aS'654\t15.01.2016 13:00:24\t0.122580645161\n'
p655
aS'655\t15.01.2016 13:10:24\t0.122580645161\n'
p656
aS'656\t15.01.2016 13:20:24\t0.122580645161\n'
p657
aS'657\t15.01.2016 13:30:24\t0.122580645161\n'
p658
aS'658\t15.01.2016 13:40:24\t0.122580645161\n'
p659
aS'659\t15.01.2016 13:50:24\t0.122580645161\n'
p660
aS'660\t15.01.2016 14:00:24\t0.122580645161\n'
p661
aS'661\t15.01.2016 14:10:23\t0.118971061093\n'
p662
aS'662\t15.01.2016 14:20:24\t0.122580645161\n'
p663
aS'663\t15.01.2016 14:30:23\t0.122580645161\n'
p664
aS'664\t15.01.2016 14:40:23\t0.122580645161\n'
p665
aS'665\t15.01.2016 14:50:23\t0.115384615385\n'
p666
aS'666\t15.01.2016 15:00:23\t0.118971061093\n'
p667
aS'667\t15.01.2016 15:10:23\t0.115384615385\n'
p668
aS'668\t15.01.2016 15:20:23\t0.115384615385\n'
p669
aS'669\t15.01.2016 15:30:23\t0.109677419355\n'
p670
aS'670\t15.01.2016 15:40:23\t0.109677419355\n'
p671
aS'671\t15.01.2016 15:50:23\t0.109677419355\n'
p672
aS'672\t15.01.2016 16:00:39\t0.109677419355\n'
p673
aS'673\t15.01.2016 16:10:23\t0.109677419355\n'
p674
aS'674\t15.01.2016 16:20:23\t0.106109324759\n'
p675
aS'675\t15.01.2016 16:30:23\t0.106109324759\n'
p676
aS'676\t15.01.2016 16:40:23\t0.103225806452\n'
p677
aS'677\t15.01.2016 16:50:23\t0.0996784565916\n'
p678
aS'678\t15.01.2016 17:00:23\t0.103225806452\n'
p679
aS'679\t15.01.2016 17:10:23\t0.100323624595\n'
p680
aS'680\t15.01.2016 17:20:23\t0.103225806452\n'
p681
aS'681\t15.01.2016 17:30:25\t0.0961538461538\n'
p682
aS'682\t15.01.2016 17:40:23\t0.0961538461538\n'
p683
aS'683\t15.01.2016 17:50:23\t0.0903225806452\n'
p684
aS'684\t15.01.2016 18:00:23\t0.0903225806452\n'
p685
aS'685\t15.01.2016 18:10:23\t0.0868167202572\n'
p686
aS'686\t15.01.2016 18:20:23\t0.0838709677419\n'
p687
aS'687\t15.01.2016 18:30:23\t0.0838709677419\n'
p688
aS'688\t15.01.2016 18:40:23\t0.0739549839228\n'
p689
aS'689\t15.01.2016 18:50:23\t0.0739549839228\n'
p690
aS'690\t15.01.2016 19:00:23\t0.0709677419355\n'
p691
aS'691\t15.01.2016 19:10:23\t0.0679611650485\n'
p692
aS'692\t15.01.2016 19:20:23\t0.0645161290323\n'
p693
aS'693\t15.01.2016 19:30:23\t0.0614886731392\n'
p694
aS'694\t15.01.2016 19:40:23\t0.0546623794212\n'
p695
aS'695\t15.01.2016 19:50:22\t0.0550161812298\n'
p696
aS'696\t15.01.2016 20:00:23\t0.0516129032258\n'
p697
aS'697\t15.01.2016 20:10:23\t0.0451612903226\n'
p698
aS'698\t15.01.2016 20:20:23\t0.042071197411\n'
p699
aS'699\t15.01.2016 20:30:23\t0.042071197411\n'
p700
aS'700\t15.01.2016 20:40:23\t0.0324675324675\n'
p701
aS'701\t15.01.2016 20:50:23\t0.0324675324675\n'
p702
aS'702\t15.01.2016 21:00:23\t0.0324675324675\n'
p703
aS'703\t15.01.2016 21:10:23\t0.0258064516129\n'
p704
aS'704\t15.01.2016 21:20:23\t0.0194805194805\n'
p705
aS'705\t15.01.2016 21:30:22\t0.0161812297735\n'
p706
aS'706\t15.01.2016 21:40:22\t0.012987012987\n'
p707
aS'707\t15.01.2016 21:50:23\t0.012987012987\n'
p708
aS'708\t15.01.2016 22:00:23\t0.00970873786408\n'
p709
aS'709\t15.01.2016 22:10:22\t0.00323624595469\n'
p710
aS'710\t15.01.2016 22:20:22\t-7.32030923333e-17\n'
p711
aS'711\t15.01.2016 22:30:22\t-0.00323624595469\n'
p712
aS'712\t15.01.2016 22:40:22\t-0.00649350649351\n'
p713
aS'713\t15.01.2016 22:50:22\t-0.0129032258065\n'
p714
aS'714\t15.01.2016 23:00:22\t-0.016077170418\n'
p715
aS'715\t15.01.2016 23:10:22\t-0.0193548387097\n'
p716
aS'716\t15.01.2016 23:20:22\t-0.0226537216828\n'
p717
aS'717\t15.01.2016 23:30:22\t-0.0258064516129\n'
p718
aS'718\t15.01.2016 23:40:22\t-0.0226537216828\n'
p719
aS'719\t15.01.2016 23:50:22\t-0.0226537216828\n'
p720
aS'720\t16.01.2016 0:00:22\t-0.0258064516129\n'
p721
aS'721\t16.01.2016 0:10:22\t-0.0289389067524\n'
p722
aS'722\t16.01.2016 0:20:23\t-0.0322580645161\n'
p723
aS'723\t16.01.2016 0:30:22\t-0.0353697749196\n'
p724
aS'724\t16.01.2016 0:40:22\t-0.0324675324675\n'
p725
aS'725\t16.01.2016 0:50:22\t-0.0320512820513\n'
p726
aS'726\t16.01.2016 1:00:22\t-0.0320512820513\n'
p727
aS'727\t16.01.2016 1:10:22\t-0.0320512820513\n'
p728
aS'728\t16.01.2016 1:20:22\t-0.0320512820513\n'
p729
aS'729\t16.01.2016 1:30:40\t-0.0289389067524\n'
p730
aS'730\t16.01.2016 1:40:22\t-0.0289389067524\n'
p731
aS'731\t16.01.2016 1:50:22\t-0.0258064516129\n'
p732
aS'732\t16.01.2016 2:00:22\t-0.0289389067524\n'
p733
aS'733\t16.01.2016 2:10:22\t-0.0289389067524\n'
p734
aS'734\t16.01.2016 2:20:22\t-0.0226537216828\n'
p735
aS'735\t16.01.2016 2:30:22\t-0.025641025641\n'
p736
aS'736\t16.01.2016 2:40:22\t-0.016077170418\n'
p737
aS'737\t16.01.2016 2:50:22\t-0.016077170418\n'
p738
aS'738\t16.01.2016 3:00:22\t-0.016077170418\n'
p739
aS'739\t16.01.2016 3:10:21\t-0.016077170418\n'
p740
aS'740\t16.01.2016 3:20:21\t-0.016077170418\n'
p741
aS'741\t16.01.2016 3:30:21\t-0.00964630225081\n'
p742
aS'742\t16.01.2016 3:40:21\t-0.0128205128205\n'
p743
aS'743\t16.01.2016 3:50:21\t-0.00964630225081\n'
p744
aS'744\t16.01.2016 4:00:21\t-0.00964630225081\n'
p745
aS'745\t16.01.2016 4:10:21\t-0.00964630225081\n'
p746
aS'746\t16.01.2016 4:20:21\t-0.00964630225081\n'
p747
aS'747\t16.01.2016 4:30:21\t0.0\n'
p748
aS'748\t16.01.2016 4:40:21\t0.0\n'
p749
aS'749\t16.01.2016 4:50:21\t0.0032154340836\n'
p750
aS'750\t16.01.2016 5:00:21\t0.00964630225081\n'
p751
aS'751\t16.01.2016 5:10:21\t0.00964630225081\n'
p752
aS'752\t16.01.2016 5:20:21\t0.0129032258065\n'
p753
aS'753\t16.01.2016 5:30:21\t0.0159744408946\n'
p754
aS'754\t16.01.2016 5:40:21\t0.0193548387097\n'
p755
aS'755\t16.01.2016 5:50:21\t0.0161812297735\n'
p756
aS'756\t16.01.2016 6:00:21\t0.025641025641\n'
p757
aS'757\t16.01.2016 6:10:21\t0.0289389067524\n'
p758
aS'758\t16.01.2016 6:20:21\t0.0289389067524\n'
p759
aS'759\t16.01.2016 6:30:21\t0.0384615384615\n'
p760
aS'760\t16.01.2016 6:40:21\t0.0418006430868\n'
p761
aS'761\t16.01.2016 6:50:21\t0.0418006430868\n'
p762
aS'762\t16.01.2016 7:00:21\t0.0448717948718\n'
p763
aS'763\t16.01.2016 7:10:21\t0.048231511254\n'
p764
aS'764\t16.01.2016 7:20:21\t0.0546623794212\n'
p765
aS'765\t16.01.2016 7:30:21\t0.0610932475884\n'
p766
aS'766\t16.01.2016 7:40:21\t0.0610932475884\n'
p767
aS'767\t16.01.2016 7:50:21\t0.0645161290323\n'
p768
aS'768\t16.01.2016 8:00:21\t0.0709677419355\n'
p769
aS'769\t16.01.2016 8:10:21\t0.0709677419355\n'
p770
aS'770\t16.01.2016 8:20:21\t0.0774193548387\n'
p771
aS'771\t16.01.2016 8:30:21\t0.08038585209\n'
p772
aS'772\t16.01.2016 8:40:21\t0.08038585209\n'
p773
aS'773\t16.01.2016 8:50:21\t0.0838709677419\n'
p774
aS'774\t16.01.2016 9:00:20\t0.0903225806452\n'
p775
aS'775\t16.01.2016 9:10:20\t0.0903225806452\n'
p776
aS'776\t16.01.2016 9:20:20\t0.0938511326861\n'
p777
aS'777\t16.01.2016 9:30:21\t0.0967741935484\n'
p778
aS'778\t16.01.2016 9:40:20\t0.0996784565916\n'
p779
aS'779\t16.01.2016 9:50:21\t0.106796116505\n'
p780
aS'780\t16.01.2016 10:00:20\t0.106796116505\n'
p781
aS'781\t16.01.2016 10:10:20\t0.106109324759\n'
p782
aS'782\t16.01.2016 10:20:20\t0.112540192926\n'
p783
aS'783\t16.01.2016 10:30:20\t0.116129032258\n'
p784
aS'784\t16.01.2016 10:40:20\t0.116129032258\n'
p785
aS'785\t16.01.2016 10:50:20\t0.118971061093\n'
p786
aS'786\t16.01.2016 11:00:20\t0.118971061093\n'
p787
aS'787\t16.01.2016 11:10:36\t0.122580645161\n'
p788
aS'788\t16.01.2016 11:20:20\t0.122580645161\n'
p789
aS'789\t16.01.2016 11:30:20\t0.12540192926\n'
p790
aS'790\t16.01.2016 11:40:20\t0.128205128205\n'
p791
aS'791\t16.01.2016 11:50:20\t0.131832797428\n'
p792
aS'792\t16.01.2016 12:00:20\t0.135483870968\n'
p793
aS'793\t16.01.2016 12:10:20\t0.135483870968\n'
p794
aS'794\t16.01.2016 12:20:20\t0.135483870968\n'
p795
aS'795\t16.01.2016 12:30:20\t0.135483870968\n'
p796
aS'796\t16.01.2016 12:40:20\t0.135483870968\n'
p797
aS'797\t16.01.2016 12:50:20\t0.135483870968\n'
p798
aS'798\t16.01.2016 13:00:20\t0.138263665595\n'
p799
aS'799\t16.01.2016 13:10:20\t0.138263665595\n'
p800
aS'800\t16.01.2016 13:20:20\t0.138263665595\n'
p801
aS'801\t16.01.2016 13:30:20\t0.141935483871\n'
p802
aS'802\t16.01.2016 13:40:20\t0.141935483871\n'
p803
aS'803\t16.01.2016 13:50:20\t0.141935483871\n'
p804
aS'804\t16.01.2016 14:00:20\t0.141935483871\n'
p805
aS'805\t16.01.2016 14:10:20\t0.141935483871\n'
p806
aS'806\t16.01.2016 14:20:20\t0.145631067961\n'
p807
aS'807\t16.01.2016 14:30:20\t0.145631067961\n'
p808
aS'808\t16.01.2016 14:40:20\t0.141935483871\n'
p809
aS'809\t16.01.2016 14:50:20\t0.141935483871\n'
p810
aS'810\t16.01.2016 15:00:20\t0.141935483871\n'
p811
aS'811\t16.01.2016 15:10:20\t0.139158576052\n'
p812
aS'812\t16.01.2016 15:20:20\t0.141935483871\n'
p813
aS'813\t16.01.2016 15:30:20\t0.141935483871\n'
p814
aS'814\t16.01.2016 15:40:20\t0.139158576052\n'
p815
aS'815\t16.01.2016 15:50:19\t0.135483870968\n'
p816
aS'816\t16.01.2016 16:00:36\t0.135483870968\n'
p817
aS'817\t16.01.2016 16:10:20\t0.135483870968\n'
p818
aS'818\t16.01.2016 16:20:20\t0.132686084142\n'
p819
aS'819\t16.01.2016 16:30:19\t0.135483870968\n'
p820
aS'820\t16.01.2016 16:40:19\t0.12987012987\n'
p821
aS'821\t16.01.2016 16:50:19\t0.12540192926\n'
p822
aS'822\t16.01.2016 17:00:19\t0.122580645161\n'
p823
aS'823\t16.01.2016 17:10:19\t0.122580645161\n'
p824
aS'824\t16.01.2016 17:20:19\t0.119741100324\n'
p825
aS'825\t16.01.2016 17:30:19\t0.116129032258\n'
p826
aS'826\t16.01.2016 17:40:19\t0.113268608414\n'
p827
aS'827\t16.01.2016 17:50:19\t0.113268608414\n'
p828
aS'828\t16.01.2016 18:00:19\t0.106796116505\n'
p829
aS'829\t16.01.2016 18:10:19\t0.100323624595\n'
p830
aS'830\t16.01.2016 18:20:19\t0.0909090909091\n'
p831
aS'831\t16.01.2016 18:30:19\t0.0909090909091\n'
p832
aS'832\t16.01.2016 18:40:19\t0.0844155844156\n'
p833
aS'833\t16.01.2016 18:50:19\t0.0809061488673\n'
p834
aS'834\t16.01.2016 19:00:19\t0.0749185667752\n'
p835
aS'835\t16.01.2016 19:10:19\t0.0714285714286\n'
p836
aS'836\t16.01.2016 19:20:19\t0.0684039087948\n'
p837
aS'837\t16.01.2016 19:30:19\t0.0614886731392\n'
p838
aS'838\t16.01.2016 19:40:19\t0.0584415584416\n'
p839
aS'839\t16.01.2016 19:50:19\t0.0714285714286\n'
p840
aS'840\t16.01.2016 20:00:19\t0.0749185667752\n'
p841
aS'841\t16.01.2016 20:10:19\t0.0718954248366\n'
p842
aS'842\t16.01.2016 20:20:19\t0.0688524590164\n'
p843
aS'843\t16.01.2016 20:30:19\t0.0679611650485\n'
p844
aS'844\t16.01.2016 20:40:19\t0.0649350649351\n'
p845
aS'845\t16.01.2016 20:50:34\t0.0649350649351\n'
p846
aS'846\t16.01.2016 21:00:19\t0.0584415584416\n'
p847
aS'847\t16.01.2016 21:10:19\t0.0584415584416\n'
p848
aS'848\t16.01.2016 21:20:19\t0.0553745928339\n'
p849
aS'849\t16.01.2016 21:30:19\t0.0614886731392\n'
p850
aS'850\t16.01.2016 21:40:18\t0.0645161290323\n'
p851
aS'851\t16.01.2016 21:50:19\t0.0649350649351\n'
p852
aS'852\t16.01.2016 22:00:19\t0.0649350649351\n'
p853
aS'853\t16.01.2016 22:10:18\t0.0614886731392\n'
p854
aS'854\t16.01.2016 22:20:18\t0.0614886731392\n'
p855
aS'855\t16.01.2016 22:30:18\t0.0614886731392\n'
p856
aS'856\t16.01.2016 22:40:18\t0.0614886731392\n'
p857
aS'857\t16.01.2016 22:50:18\t0.0675241157556\n'
p858
aS'858\t16.01.2016 23:00:18\t0.0645161290323\n'
p859
aS'859\t16.01.2016 23:10:18\t0.0675241157556\n'
p860
aS'860\t16.01.2016 23:20:18\t0.0641025641026\n'
p861
aS'861\t16.01.2016 23:30:18\t0.0607028753994\n'
p862
aS'862\t16.01.2016 23:40:18\t0.058064516129\n'
p863
aS'863\t16.01.2016 23:50:19\t0.0546623794212\n'
p864
aS'864\t17.01.2016 0:00:18\t0.0576923076923\n'
p865
aS'865\t17.01.2016 0:10:18\t0.0576923076923\n'
p866
aS'866\t17.01.2016 0:20:18\t0.0546623794212\n'
p867
aS'867\t17.01.2016 0:30:18\t0.0576923076923\n'
p868
aS'868\t17.01.2016 0:40:18\t0.0576923076923\n'
p869
aS'869\t17.01.2016 0:50:18\t0.0576923076923\n'
p870
aS'870\t17.01.2016 1:00:18\t0.0576923076923\n'
p871
aS'871\t17.01.2016 1:10:19\t0.0607028753994\n'
p872
aS'872\t17.01.2016 1:20:18\t0.0607028753994\n'
p873
aS'873\t17.01.2016 1:30:34\t0.0576923076923\n'
p874
aS'874\t17.01.2016 1:40:18\t0.0607028753994\n'
p875
aS'875\t17.01.2016 1:50:18\t0.0576923076923\n'
p876
aS'876\t17.01.2016 2:00:18\t0.0576923076923\n'
p877
aS'877\t17.01.2016 2:10:18\t0.0546623794212\n'
p878
aS'878\t17.01.2016 2:20:18\t0.0546623794212\n'
p879
aS'879\t17.01.2016 2:30:18\t0.0546623794212\n'
p880
aS'880\t17.01.2016 2:40:18\t0.058064516129\n'
p881
aS'881\t17.01.2016 2:50:18\t0.0546623794212\n'
p882
aS'882\t17.01.2016 3:00:18\t0.0614886731392\n'
p883
aS'883\t17.01.2016 3:10:18\t0.0614886731392\n'
p884
aS'884\t17.01.2016 3:20:18\t0.0607028753994\n'
p885
aS'885\t17.01.2016 3:30:18\t0.0645161290323\n'
p886
aS'886\t17.01.2016 3:40:18\t0.0675241157556\n'
p887
aS'887\t17.01.2016 3:50:18\t0.0645161290323\n'
p888
aS'888\t17.01.2016 4:00:18\t0.0645161290323\n'
p889
aS'889\t17.01.2016 4:10:17\t0.0705128205128\n'
p890
aS'890\t17.01.2016 4:20:18\t0.0705128205128\n'
p891
aS'891\t17.01.2016 4:30:17\t0.0739549839228\n'
p892
aS'892\t17.01.2016 4:40:17\t0.0798722044728\n'
p893
aS'893\t17.01.2016 4:50:17\t0.0798722044728\n'
p894
aS'894\t17.01.2016 5:00:17\t0.0798722044728\n'
p895
aS'895\t17.01.2016 5:10:17\t0.0798722044728\n'
p896
aS'896\t17.01.2016 5:20:17\t0.0798722044728\n'
p897
aS'897\t17.01.2016 5:30:17\t0.0798722044728\n'
p898
aS'898\t17.01.2016 5:40:17\t0.0798722044728\n'
p899
aS'899\t17.01.2016 5:50:17\t0.0798722044728\n'
p900
aS'900\t17.01.2016 6:00:17\t0.0833333333333\n'
p901
aS'901\t17.01.2016 6:10:17\t0.0798722044728\n'
p902
aS'902\t17.01.2016 6:20:32\t0.0833333333333\n'
p903
aS'903\t17.01.2016 6:30:17\t0.0868167202572\n'
p904
aS'904\t17.01.2016 6:40:17\t0.0868167202572\n'
p905
aS'905\t17.01.2016 6:50:17\t0.0868167202572\n'
p906
aS'906\t17.01.2016 7:00:17\t0.0868167202572\n'
p907
aS'907\t17.01.2016 7:10:17\t0.0903225806452\n'
p908
aS'908\t17.01.2016 7:20:17\t0.0897435897436\n'
p909
aS'909\t17.01.2016 7:30:17\t0.0926517571885\n'
p910
aS'910\t17.01.2016 7:40:17\t0.0932475884244\n'
p911
aS'911\t17.01.2016 7:50:17\t0.0961538461538\n'
p912
aS'912\t17.01.2016 8:00:17\t0.0961538461538\n'
p913
aS'913\t17.01.2016 8:10:17\t0.0932475884244\n'
p914
aS'914\t17.01.2016 8:20:17\t0.0961538461538\n'
p915
aS'915\t17.01.2016 8:30:17\t0.100323624595\n'
p916
aS'916\t17.01.2016 8:40:17\t0.100323624595\n'
p917
aS'917\t17.01.2016 8:50:17\t0.103225806452\n'
p918
aS'918\t17.01.2016 9:00:17\t0.106109324759\n'
p919
aS'919\t17.01.2016 9:10:17\t0.100323624595\n'
p920
aS'920\t17.01.2016 9:20:17\t0.100323624595\n'
p921
aS'921\t17.01.2016 9:30:17\t0.100323624595\n'
p922
aS'922\t17.01.2016 9:40:17\t0.100323624595\n'
p923
aS'923\t17.01.2016 9:50:17\t0.103225806452\n'
p924
aS'924\t17.01.2016 10:00:17\t0.103225806452\n'
p925
aS'925\t17.01.2016 10:10:17\t0.103225806452\n'
p926
aS'926\t17.01.2016 10:20:17\t0.106109324759\n'
p927
aS'927\t17.01.2016 10:30:17\t0.103225806452\n'
p928
aS'928\t17.01.2016 10:40:17\t0.106109324759\n'
p929
aS'929\t17.01.2016 10:50:17\t0.106109324759\n'
p930
aS'930\t17.01.2016 11:00:17\t0.106109324759\n'
p931
aS'931\t17.01.2016 11:10:31\t0.106109324759\n'
p932
aS'932\t17.01.2016 11:20:17\t0.102564102564\n'
p933
aS'933\t17.01.2016 11:30:17\t0.106109324759\n'
p934
aS'934\t17.01.2016 11:40:16\t0.106109324759\n'
p935
aS'935\t17.01.2016 11:50:16\t0.106109324759\n'
p936
aS'936\t17.01.2016 12:00:16\t0.106109324759\n'
p937
aS'937\t17.01.2016 12:10:17\t0.103225806452\n'
p938
aS'938\t17.01.2016 12:20:16\t0.103225806452\n'
p939
aS'939\t17.01.2016 12:30:16\t0.103225806452\n'
p940
aS'940\t17.01.2016 12:40:16\t0.107491856678\n'
p941
aS'941\t17.01.2016 12:50:16\t0.100323624595\n'
p942
aS'942\t17.01.2016 13:00:16\t0.100323624595\n'
p943
aS'943\t17.01.2016 13:20:16\t0.0967741935484\n'
p944
aS'944\t17.01.2016 13:30:16\t0.0967741935484\n'
p945
aS'945\t17.01.2016 13:40:16\t0.0932475884244\n'
p946
aS'946\t17.01.2016 13:50:16\t0.0938511326861\n'
p947
aS'947\t17.01.2016 14:00:16\t0.0932475884244\n'
p948
aS'948\t17.01.2016 14:10:16\t0.0903225806452\n'
p949
aS'949\t17.01.2016 14:20:16\t0.0868167202572\n'
p950
aS'950\t17.01.2016 14:30:16\t0.0903225806452\n'
p951
aS'951\t17.01.2016 14:40:16\t0.0903225806452\n'
p952
aS'952\t17.01.2016 14:50:16\t0.0903225806452\n'
p953
aS'953\t17.01.2016 15:00:16\t0.0903225806452\n'
p954
aS'954\t17.01.2016 15:10:16\t0.0903225806452\n'
p955
aS'955\t17.01.2016 15:20:16\t0.0868167202572\n'
p956
aS'956\t17.01.2016 15:30:16\t0.0833333333333\n'
p957
aS'957\t17.01.2016 15:40:16\t0.0868167202572\n'
p958
aS'958\t17.01.2016 15:50:16\t0.0838709677419\n'
p959
aS'959\t17.01.2016 16:00:31\t0.0809061488673\n'
p960
aS'960\t17.01.2016 16:10:16\t0.0809061488673\n'
p961
aS'961\t17.01.2016 16:20:16\t0.0809061488673\n'
p962
aS'962\t17.01.2016 16:30:16\t0.0809061488673\n'
p963
aS'963\t17.01.2016 16:40:16\t0.0809061488673\n'
p964
aS'964\t17.01.2016 16:50:15\t0.0809061488673\n'
p965
aS'965\t17.01.2016 17:00:15\t0.0809061488673\n'
p966
aS'966\t17.01.2016 17:10:15\t0.0809061488673\n'
p967
aS'967\t17.01.2016 17:20:15\t0.0774193548387\n'
p968
aS'968\t17.01.2016 17:30:15\t0.0809061488673\n'
p969
aS'969\t17.01.2016 17:40:16\t0.0774193548387\n'
p970
aS'970\t17.01.2016 17:50:16\t0.0809061488673\n'
p971
aS'971\t17.01.2016 18:00:16\t0.0774193548387\n'
p972
aS'972\t17.01.2016 18:10:16\t0.0809061488673\n'
p973
aS'973\t17.01.2016 18:20:15\t0.0774193548387\n'
p974
aS'974\t17.01.2016 18:30:15\t0.0705128205128\n'
p975
aS'975\t17.01.2016 18:40:15\t0.0705128205128\n'
p976
aS'976\t17.01.2016 18:50:15\t0.0705128205128\n'
p977
aS'977\t17.01.2016 19:00:15\t0.0705128205128\n'
p978
aS'978\t17.01.2016 19:10:15\t0.0705128205128\n'
p979
aS'979\t17.01.2016 19:20:15\t0.0705128205128\n'
p980
aS'980\t17.01.2016 19:30:15\t0.0705128205128\n'
p981
aS'981\t17.01.2016 19:40:15\t0.0705128205128\n'
p982
aS'982\t17.01.2016 19:50:15\t0.0705128205128\n'
p983
aS'983\t17.01.2016 20:00:15\t0.0705128205128\n'
p984
aS'984\t17.01.2016 20:10:15\t0.0705128205128\n'
p985
aS'985\t17.01.2016 20:20:15\t0.0705128205128\n'
p986
aS'986\t17.01.2016 20:30:15\t0.0641025641026\n'
p987
aS'987\t17.01.2016 20:40:15\t0.0636942675159\n'
p988
aS'988\t17.01.2016 20:50:31\t0.0607028753994\n'
p989
aS'989\t17.01.2016 21:00:15\t0.0607028753994\n'
p990
aS'990\t17.01.2016 21:10:15\t0.0607028753994\n'
p991
aS'991\t17.01.2016 21:20:15\t0.0641025641026\n'
p992
aS'992\t17.01.2016 21:30:15\t0.0641025641026\n'
p993
aS'993\t17.01.2016 21:40:15\t0.0641025641026\n'
p994
aS'994\t17.01.2016 21:50:15\t0.0641025641026\n'
p995
aS'995\t17.01.2016 22:00:15\t0.0641025641026\n'
p996
aS'996\t17.01.2016 22:10:15\t0.0641025641026\n'
p997
aS'997\t17.01.2016 22:20:15\t0.0641025641026\n'
p998
aS'998\t17.01.2016 22:30:15\t0.0641025641026\n'
p999
aS'999\t17.01.2016 22:40:15\t0.0641025641026\n'
p1000
aS'1000\t17.01.2016 22:50:15\t0.0641025641026\n'
p1001
aS'1001\t17.01.2016 23:00:15\t0.0641025641026\n'
p1002
aS'1002\t17.01.2016 23:10:15\t0.0641025641026\n'
p1003
aS'1003\t17.01.2016 23:20:15\t0.0641025641026\n'
p1004
aS'1004\t17.01.2016 23:30:14\t0.0641025641026\n'
p1005
aS'1005\t17.01.2016 23:40:15\t0.0610932475884\n'
p1006
aS'1006\t17.01.2016 23:50:14\t0.0641025641026\n'
p1007
aS'1007\t18.01.2016 0:00:15\t0.0641025641026\n'
p1008
aS'1008\t18.01.2016 0:10:14\t0.0607028753994\n'
p1009
aS'1009\t18.01.2016 0:20:14\t0.0576923076923\n'
p1010
aS'1010\t18.01.2016 0:30:14\t0.0576923076923\n'
p1011
aS'1011\t18.01.2016 0:40:14\t0.0546623794212\n'
p1012
aS'1012\t18.01.2016 0:50:14\t0.0607028753994\n'
p1013
aS'1013\t18.01.2016 1:00:14\t0.0512820512821\n'
p1014
aS'1014\t18.01.2016 1:10:14\t0.0546623794212\n'
p1015
aS'1015\t18.01.2016 1:20:14\t0.0512820512821\n'
p1016
aS'1016\t18.01.2016 1:30:30\t0.0512820512821\n'
p1017
aS'1017\t18.01.2016 1:40:14\t0.0512820512821\n'
p1018
aS'1018\t18.01.2016 1:50:14\t0.0512820512821\n'
p1019
aS'1019\t18.01.2016 2:00:14\t0.0512820512821\n'
p1020
aS'1020\t18.01.2016 2:10:14\t0.0512820512821\n'
p1021
aS'1021\t18.01.2016 2:20:14\t0.0512820512821\n'
p1022
aS'1022\t18.01.2016 2:30:14\t0.0512820512821\n'
p1023
aS'1023\t18.01.2016 2:40:14\t0.0479233226837\n'
p1024
aS'1024\t18.01.2016 2:50:14\t0.0445859872611\n'
p1025
aS'1025\t18.01.2016 3:00:14\t0.0415335463259\n'
p1026
aS'1026\t18.01.2016 3:10:14\t0.0415335463259\n'
p1027
aS'1027\t18.01.2016 3:20:14\t0.0415335463259\n'
p1028
aS'1028\t18.01.2016 3:30:14\t0.0415335463259\n'
p1029
aS'1029\t18.01.2016 3:40:14\t0.0415335463259\n'
p1030
aS'1030\t18.01.2016 3:50:14\t0.0415335463259\n'
p1031
aS'1031\t18.01.2016 4:00:14\t0.0384615384615\n'
p1032
aS'1032\t18.01.2016 4:10:14\t0.0384615384615\n'
p1033
aS'1033\t18.01.2016 4:20:14\t0.035143769968\n'
p1034
aS'1034\t18.01.2016 4:30:14\t0.0384615384615\n'
p1035
aS'1035\t18.01.2016 4:40:14\t0.0320512820513\n'
p1036
aS'1036\t18.01.2016 4:50:14\t0.0320512820513\n'
p1037
aS'1037\t18.01.2016 5:00:14\t0.0320512820513\n'
p1038
aS'1038\t18.01.2016 5:10:14\t0.0320512820513\n'
p1039
aS'1039\t18.01.2016 5:20:14\t0.0320512820513\n'
p1040
aS'1040\t18.01.2016 5:30:14\t0.0320512820513\n'
p1041
aS'1041\t18.01.2016 5:40:14\t0.0320512820513\n'
p1042
aS'1042\t18.01.2016 5:50:14\t0.0320512820513\n'
p1043
aS'1043\t18.01.2016 6:00:14\t0.0320512820513\n'
p1044
aS'1044\t18.01.2016 6:10:13\t0.0320512820513\n'
p1045
aS'1045\t18.01.2016 6:20:30\t0.0320512820513\n'
p1046
aS'1046\t18.01.2016 6:30:13\t0.0320512820513\n'
p1047
aS'1047\t18.01.2016 6:40:13\t0.0287539936102\n'
p1048
aS'1048\t18.01.2016 6:50:13\t0.0287539936102\n'
p1049
aS'1049\t18.01.2016 7:00:13\t0.0320512820513\n'
p1050
aS'1050\t18.01.2016 7:10:13\t0.0287539936102\n'
p1051
aS'1051\t18.01.2016 7:20:13\t0.0320512820513\n'
p1052
aS'1052\t18.01.2016 7:30:13\t0.0287539936102\n'
p1053
aS'1053\t18.01.2016 7:40:13\t0.0287539936102\n'
p1054
aS'1054\t18.01.2016 7:50:13\t0.0320512820513\n'
p1055
aS'1055\t18.01.2016 8:00:13\t0.0320512820513\n'
p1056
aS'1056\t18.01.2016 8:10:13\t0.0320512820513\n'
p1057
aS'1057\t18.01.2016 8:20:13\t0.0320512820513\n'
p1058
aS'1058\t18.01.2016 8:30:13\t0.0320512820513\n'
p1059
aS'1059\t18.01.2016 8:40:13\t0.0353697749196\n'
p1060
aS'1060\t18.01.2016 8:50:13\t0.035143769968\n'
p1061
aS'1061\t18.01.2016 9:00:13\t0.035143769968\n'
p1062
aS'1062\t18.01.2016 9:10:13\t0.035143769968\n'
p1063
aS'1063\t18.01.2016 9:20:13\t0.0382165605096\n'
p1064
aS'1064\t18.01.2016 9:30:13\t0.0382165605096\n'
p1065
aS'1065\t18.01.2016 9:40:13\t0.0448717948718\n'
p1066
aS'1066\t18.01.2016 9:50:13\t0.0412698412698\n'
p1067
aS'1067\t18.01.2016 10:00:13\t0.0445859872611\n'
p1068
aS'1068\t18.01.2016 10:10:13\t0.0479233226837\n'
p1069
aS'1069\t18.01.2016 10:20:13\t0.0445859872611\n'
p1070
aS'1070\t18.01.2016 10:30:13\t0.0479233226837\n'
p1071
aS'1071\t18.01.2016 10:40:13\t0.0479233226837\n'
p1072
aS'1072\t18.01.2016 10:50:13\t0.0479233226837\n'
p1073
aS'1073\t18.01.2016 11:00:13\t0.0479233226837\n'
p1074
aS'1074\t18.01.2016 11:10:31\t0.0543130990415\n'
p1075
aS'1075\t18.01.2016 11:20:13\t0.0573248407643\n'
p1076
aS'1076\t18.01.2016 11:30:13\t0.0573248407643\n'
p1077
aS'1077\t18.01.2016 11:40:12\t0.0573248407643\n'
p1078
aS'1078\t18.01.2016 11:50:13\t0.0573248407643\n'
p1079
aS'1079\t18.01.2016 12:00:13\t0.0607028753994\n'
p1080
aS'1080\t18.01.2016 12:10:13\t0.0641025641026\n'
p1081
aS'1081\t18.01.2016 12:20:13\t0.0641025641026\n'
p1082
aS'1082\t18.01.2016 12:30:13\t0.0670926517572\n'
p1083
aS'1083\t18.01.2016 12:40:13\t0.0670926517572\n'
p1084
aS'1084\t18.01.2016 12:50:13\t0.0670926517572\n'
p1085
aS'1085\t18.01.2016 13:00:13\t0.0730158730159\n'
p1086
aS'1086\t18.01.2016 13:10:14\t0.0798722044728\n'
p1087
aS'1087\t18.01.2016 13:20:12\t0.0798722044728\n'
p1088
aS'1088\t18.01.2016 13:30:12\t0.0833333333333\n'
p1089
aS'1089\t18.01.2016 13:40:12\t0.0862619808307\n'
p1090
aS'1090\t18.01.2016 13:50:13\t0.0862619808307\n'
p1091
aS'1091\t18.01.2016 14:00:13\t0.0862619808307\n'
p1092
aS'1092\t18.01.2016 14:10:13\t0.0862619808307\n'
p1093
aS'1093\t18.01.2016 14:20:12\t0.0897435897436\n'
p1094
aS'1094\t18.01.2016 14:30:12\t0.0990415335463\n'
p1095
aS'1095\t18.01.2016 14:40:12\t0.0961538461538\n'
p1096
aS'1096\t18.01.2016 14:50:12\t0.0990415335463\n'
p1097
aS'1097\t18.01.2016 15:00:12\t0.102564102564\n'
p1098
aS'1098\t18.01.2016 15:10:12\t0.102564102564\n'
p1099
aS'1099\t18.01.2016 15:20:12\t0.102564102564\n'
p1100
aS'1100\t18.01.2016 15:30:12\t0.102564102564\n'
p1101
aS'1101\t18.01.2016 15:40:12\t0.102564102564\n'
p1102
aS'1102\t18.01.2016 15:50:12\t0.102564102564\n'
p1103
aS'1103\t18.01.2016 16:00:28\t0.102564102564\n'
p1104
aS'1104\t18.01.2016 16:10:12\t0.105431309904\n'
p1105
aS'1105\t18.01.2016 16:20:12\t0.105431309904\n'
p1106
aS'1106\t18.01.2016 16:30:12\t0.109677419355\n'
p1107
aS'1107\t18.01.2016 16:40:12\t0.105431309904\n'
p1108
aS'1108\t18.01.2016 16:50:12\t0.105431309904\n'
p1109
aS'1109\t18.01.2016 17:00:12\t0.112540192926\n'
p1110
aS'1110\t18.01.2016 17:10:12\t0.112540192926\n'
p1111
aS'1111\t18.01.2016 17:20:12\t0.105431309904\n'
p1112
aS'1112\t18.01.2016 17:30:12\t0.0990415335463\n'
p1113
aS'1113\t18.01.2016 17:40:12\t0.0862619808307\n'
p1114
aS'1114\t18.01.2016 17:50:12\t0.0862619808307\n'
p1115
aS'1115\t18.01.2016 18:00:12\t0.0828025477707\n'
p1116
aS'1116\t18.01.2016 18:10:12\t0.0769230769231\n'
p1117
aS'1117\t18.01.2016 18:20:12\t0.0764331210191\n'
p1118
aS'1118\t18.01.2016 18:30:12\t0.0705128205128\n'
p1119
aS'1119\t18.01.2016 18:40:12\t0.0670926517572\n'
p1120
aS'1120\t18.01.2016 18:50:12\t0.0641025641026\n'
p1121
aS'1121\t18.01.2016 19:00:11\t0.0641025641026\n'
p1122
aS'1122\t18.01.2016 19:10:11\t0.0576923076923\n'
p1123
aS'1123\t18.01.2016 19:20:11\t0.0512820512821\n'
p1124
aS'1124\t18.01.2016 19:30:11\t0.0512820512821\n'
p1125
aS'1125\t18.01.2016 19:40:11\t0.0479233226837\n'
p1126
aS'1126\t18.01.2016 19:50:11\t0.0451612903226\n'
p1127
aS'1127\t18.01.2016 20:00:11\t0.0418006430868\n'
p1128
aS'1128\t18.01.2016 20:10:11\t0.0384615384615\n'
p1129
aS'1129\t18.01.2016 20:20:11\t0.035143769968\n'
p1130
aS'1130\t18.01.2016 20:30:11\t0.0353697749196\n'
p1131
aS'1131\t18.01.2016 20:40:11\t0.0320512820513\n'
p1132
aS'1132\t18.01.2016 20:50:27\t0.0287539936102\n'
p1133
aS'1133\t18.01.2016 21:00:11\t0.0287539936102\n'
p1134
aS'1134\t18.01.2016 21:10:11\t0.0223642172524\n'
p1135
aS'1135\t18.01.2016 21:20:11\t0.0223642172524\n'
p1136
aS'1136\t18.01.2016 21:30:11\t0.0192307692308\n'
p1137
aS'1137\t18.01.2016 21:40:11\t0.0192307692308\n'
p1138
aS'1138\t18.01.2016 21:50:11\t0.0192307692308\n'
p1139
aS'1139\t18.01.2016 22:00:11\t0.016077170418\n'
p1140
aS'1140\t18.01.2016 22:10:11\t0.016077170418\n'
p1141
aS'1141\t18.01.2016 22:20:11\t0.016077170418\n'
p1142
aS'1142\t18.01.2016 22:30:11\t0.0128205128205\n'
p1143
aS'1143\t18.01.2016 22:40:11\t0.00645161290323\n'
p1144
aS'1144\t18.01.2016 22:50:11\t0.00645161290323\n'
p1145
aS'1145\t18.01.2016 23:00:11\t0.0032154340836\n'
p1146
aS'1146\t18.01.2016 23:10:11\t-7.27338417415e-17\n'
p1147
aS'1147\t18.01.2016 23:20:11\t-7.27338417415e-17\n'
p1148
aS'1148\t18.01.2016 23:30:13\t-7.27338417415e-17\n'
p1149
aS'1149\t18.01.2016 23:40:11\t-7.27338417415e-17\n'
p1150
aS'1150\t18.01.2016 23:50:11\t-0.0032154340836\n'
p1151
aS'1151\t19.01.2016 0:00:11\t-0.00641025641026\n'
p1152
aS'1152\t19.01.2016 0:10:11\t-0.00958466453674\n'
p1153
aS'1153\t19.01.2016 0:20:11\t-0.00958466453674\n'
p1154
aS'1154\t19.01.2016 0:30:11\t-0.00958466453674\n'
p1155
aS'1155\t19.01.2016 0:40:11\t-0.0192307692308\n'
p1156
aS'1156\t19.01.2016 0:50:11\t-0.0192307692308\n'
p1157
aS'1157\t19.01.2016 1:00:11\t-0.0192307692308\n'
p1158
aS'1158\t19.01.2016 1:10:11\t-0.0192307692308\n'
p1159
aS'1159\t19.01.2016 1:20:11\t-0.0192307692308\n'
p1160
aS'1160\t19.01.2016 1:30:26\t-0.0192307692308\n'
p1161
aS'1161\t19.01.2016 1:40:10\t-0.025641025641\n'
p1162
aS'1162\t19.01.2016 1:50:11\t-0.0289389067524\n'
p1163
aS'1163\t19.01.2016 2:00:10\t-0.025641025641\n'
p1164
aS'1164\t19.01.2016 2:10:10\t-0.025641025641\n'
p1165
aS'1165\t19.01.2016 2:20:10\t-0.0287539936102\n'
p1166
aS'1166\t19.01.2016 2:30:10\t-0.0320512820513\n'
p1167
aS'1167\t19.01.2016 2:40:10\t-0.0289389067524\n'
p1168
aS'1168\t19.01.2016 2:50:10\t-0.0320512820513\n'
p1169
aS'1169\t19.01.2016 3:00:10\t-0.035143769968\n'
p1170
aS'1170\t19.01.2016 3:10:10\t-0.035143769968\n'
p1171
aS'1171\t19.01.2016 3:20:10\t-0.035143769968\n'
p1172
aS'1172\t19.01.2016 3:30:10\t-0.0384615384615\n'
p1173
aS'1173\t19.01.2016 3:40:10\t-0.0353697749196\n'
p1174
aS'1174\t19.01.2016 3:50:10\t-0.0384615384615\n'
p1175
aS'1175\t19.01.2016 4:00:10\t-0.0384615384615\n'
p1176
aS'1176\t19.01.2016 4:10:10\t-0.0384615384615\n'
p1177
aS'1177\t19.01.2016 4:20:10\t-0.0384615384615\n'
p1178
aS'1178\t19.01.2016 4:30:10\t-0.0384615384615\n'
p1179
aS'1179\t19.01.2016 4:40:10\t-0.0384615384615\n'
p1180
aS'1180\t19.01.2016 4:50:10\t-0.0353697749196\n'
p1181
aS'1181\t19.01.2016 5:00:10\t-0.0353697749196\n'
p1182
aS'1182\t19.01.2016 5:10:10\t-0.0353697749196\n'
p1183
aS'1183\t19.01.2016 5:20:10\t-0.0320512820513\n'
p1184
aS'1184\t19.01.2016 5:30:10\t-0.0320512820513\n'
p1185
aS'1185\t19.01.2016 5:40:10\t-0.0289389067524\n'
p1186
aS'1186\t19.01.2016 5:50:10\t-0.0289389067524\n'
p1187
aS'1187\t19.01.2016 6:00:10\t-0.0289389067524\n'
p1188
aS'1188\t19.01.2016 6:10:10\t-0.0289389067524\n'
p1189
aS'1189\t19.01.2016 6:20:25\t-0.0289389067524\n'
p1190
aS'1190\t19.01.2016 6:30:10\t-0.025641025641\n'
p1191
aS'1191\t19.01.2016 6:40:10\t-0.0223642172524\n'
p1192
aS'1192\t19.01.2016 6:50:10\t-0.0193548387097\n'
p1193
aS'1193\t19.01.2016 7:00:10\t-0.0192307692308\n'
p1194
aS'1194\t19.01.2016 7:10:10\t-0.016077170418\n'
p1195
aS'1195\t19.01.2016 7:20:10\t-0.016077170418\n'
p1196
aS'1196\t19.01.2016 7:30:10\t-0.016077170418\n'
p1197
aS'1197\t19.01.2016 7:40:10\t-0.0128205128205\n'
p1198
aS'1198\t19.01.2016 7:50:10\t-0.0128205128205\n'
p1199
aS'1199\t19.01.2016 8:00:10\t-0.0096463022508\n'
p1200
aS'1200\t19.01.2016 8:10:09\t-0.0096463022508\n'
p1201
aS'1201\t19.01.2016 8:20:09\t-0.00645161290323\n'
p1202
aS'1202\t19.01.2016 8:30:10\t-0.00641025641026\n'
p1203
aS'1203\t19.01.2016 8:40:09\t-0.00323624595469\n'
p1204
aS'1204\t19.01.2016 8:50:10\t-7.27338417415e-17\n'
p1205
aS'1205\t19.01.2016 9:00:09\t0.0032154340836\n'
p1206
aS'1206\t19.01.2016 9:10:09\t-7.27338417415e-17\n'
p1207
aS'1207\t19.01.2016 9:20:09\t-7.27338417415e-17\n'
p1208
aS'1208\t19.01.2016 9:30:09\t0.0032154340836\n'
p1209
aS'1209\t19.01.2016 9:40:09\t0.00645161290323\n'
p1210
aS'1210\t19.01.2016 9:50:09\t0.0128205128205\n'
p1211
aS'1211\t19.01.2016 10:00:09\t0.0128205128205\n'
p1212
aS'1212\t19.01.2016 10:10:09\t0.0128205128205\n'
p1213
aS'1213\t19.01.2016 10:20:09\t0.016077170418\n'
p1214
aS'1214\t19.01.2016 10:30:09\t0.0192307692308\n'
p1215
aS'1215\t19.01.2016 10:40:09\t0.0225080385852\n'
p1216
aS'1216\t19.01.2016 10:50:09\t0.0192307692308\n'
p1217
aS'1217\t19.01.2016 11:00:09\t0.0258064516129\n'
p1218
aS'1218\t19.01.2016 11:10:25\t0.0223642172524\n'
p1219
aS'1219\t19.01.2016 11:20:09\t0.025641025641\n'
p1220
aS'1220\t19.01.2016 11:30:09\t0.025641025641\n'
p1221
aS'1221\t19.01.2016 11:40:09\t0.0287539936102\n'
p1222
aS'1222\t19.01.2016 11:50:10\t0.0320512820513\n'
p1223
aS'1223\t19.01.2016 12:00:09\t0.0320512820513\n'
p1224
aS'1224\t19.01.2016 12:10:09\t0.0353697749196\n'
p1225
aS'1225\t19.01.2016 12:20:09\t0.0353697749196\n'
p1226
aS'1226\t19.01.2016 12:30:09\t0.0415335463259\n'
p1227
aS'1227\t19.01.2016 12:40:09\t0.0415335463259\n'
p1228
aS'1228\t19.01.2016 12:50:09\t0.0415335463259\n'
p1229
aS'1229\t19.01.2016 13:00:09\t0.0415335463259\n'
p1230
aS'1230\t19.01.2016 13:10:09\t0.0448717948718\n'
p1231
aS'1231\t19.01.2016 13:20:09\t0.0479233226837\n'
p1232
aS'1232\t19.01.2016 13:30:09\t0.0479233226837\n'
p1233
aS'1233\t19.01.2016 13:40:08\t0.0512820512821\n'
p1234
aS'1234\t19.01.2016 13:50:09\t0.0546623794212\n'
p1235
aS'1235\t19.01.2016 14:00:09\t0.0576923076923\n'
p1236
aS'1236\t19.01.2016 14:10:09\t0.0576923076923\n'
p1237
aS'1237\t19.01.2016 14:20:08\t0.0607028753994\n'
p1238
aS'1238\t19.01.2016 14:30:08\t0.0607028753994\n'
p1239
aS'1239\t19.01.2016 14:40:09\t0.0607028753994\n'
p1240
aS'1240\t19.01.2016 14:50:08\t0.0641025641026\n'
p1241
aS'1241\t19.01.2016 15:00:08\t0.0641025641026\n'
p1242
aS'1242\t19.01.2016 15:10:09\t0.0670926517572\n'
p1243
aS'1243\t19.01.2016 15:20:09\t0.0670926517572\n'
p1244
aS'1244\t19.01.2016 15:30:09\t0.0700636942675\n'
p1245
aS'1245\t19.01.2016 15:40:09\t0.0700636942675\n'
p1246
aS'1246\t19.01.2016 15:50:08\t0.073482428115\n'
p1247
aS'1247\t19.01.2016 16:00:26\t0.0769230769231\n'
p1248
aS'1248\t19.01.2016 16:10:09\t0.0769230769231\n'
p1249
aS'1249\t19.01.2016 16:20:09\t0.0833333333333\n'
p1250
aS'1250\t19.01.2016 16:30:08\t0.0833333333333\n'
p1251
aS'1251\t19.01.2016 16:40:09\t0.0833333333333\n'
p1252
aS'1252\t19.01.2016 16:50:08\t0.0868167202572\n'
p1253
aS'1253\t19.01.2016 17:00:08\t0.0868167202572\n'
p1254
aS'1254\t19.01.2016 17:10:08\t0.0833333333333\n'
p1255
aS'1255\t19.01.2016 17:20:08\t0.0833333333333\n'
p1256
aS'1256\t19.01.2016 17:30:08\t0.0833333333333\n'
p1257
aS'1257\t19.01.2016 17:40:08\t0.0833333333333\n'
p1258
aS'1258\t19.01.2016 17:50:08\t0.0833333333333\n'
p1259
aS'1259\t19.01.2016 18:00:08\t0.0833333333333\n'
p1260
aS'1260\t19.01.2016 18:10:08\t0.0798722044728\n'
p1261
aS'1261\t19.01.2016 18:20:08\t0.0798722044728\n'
p1262
aS'1262\t19.01.2016 18:30:08\t0.0798722044728\n'
p1263
aS'1263\t19.01.2016 18:40:08\t0.073482428115\n'
p1264
aS'1264\t19.01.2016 18:50:08\t0.073482428115\n'
p1265
aS'1265\t19.01.2016 19:00:08\t0.073482428115\n'
p1266
aS'1266\t19.01.2016 19:10:08\t0.073482428115\n'
p1267
aS'1267\t19.01.2016 19:20:08\t0.0705128205128\n'
p1268
aS'1268\t19.01.2016 19:30:08\t0.0705128205128\n'
p1269
aS'1269\t19.01.2016 19:40:08\t0.0705128205128\n'
p1270
aS'1270\t19.01.2016 19:50:08\t0.0705128205128\n'
p1271
aS'1271\t19.01.2016 20:00:08\t0.0675241157556\n'
p1272
aS'1272\t19.01.2016 20:10:08\t0.0675241157556\n'
p1273
aS'1273\t19.01.2016 20:20:08\t0.0670926517572\n'
p1274
aS'1274\t19.01.2016 20:30:08\t0.0641025641026\n'
p1275
aS'1275\t19.01.2016 20:40:08\t0.0641025641026\n'
p1276
aS'1276\t19.01.2016 20:50:08\t0.0610932475884\n'
p1277
aS'1277\t19.01.2016 21:00:08\t0.0610932475884\n'
p1278
aS'1278\t19.01.2016 21:10:08\t0.0641025641026\n'
p1279
aS'1279\t19.01.2016 21:20:08\t0.0641025641026\n'
p1280
aS'1280\t19.01.2016 21:30:07\t0.0641025641026\n'
p1281
aS'1281\t19.01.2016 21:40:07\t0.0576923076923\n'
p1282
aS'1282\t19.01.2016 21:50:07\t0.0543130990415\n'
p1283
aS'1283\t19.01.2016 22:00:07\t0.0543130990415\n'
p1284
aS'1284\t19.01.2016 22:10:07\t0.0543130990415\n'
p1285
aS'1285\t19.01.2016 22:20:07\t0.0543130990415\n'
p1286
aS'1286\t19.01.2016 22:30:07\t0.0543130990415\n'
p1287
aS'1287\t19.01.2016 22:40:07\t0.0512820512821\n'
p1288
aS'1288\t19.01.2016 22:50:07\t0.0546623794212\n'
p1289
aS'1289\t19.01.2016 23:00:07\t0.0479233226837\n'
p1290
aS'1290\t19.01.2016 23:10:07\t0.0479233226837\n'
p1291
aS'1291\t19.01.2016 23:20:07\t0.0479233226837\n'
p1292
aS'1292\t19.01.2016 23:30:07\t0.0479233226837\n'
p1293
aS'1293\t19.01.2016 23:40:07\t0.0448717948718\n'
p1294
aS'1294\t19.01.2016 23:50:07\t0.0415335463259\n'
p1295
aS'1295\t20.01.2016 0:00:07\t0.0418006430868\n'
p1296
aS'1296\t20.01.2016 0:10:07\t0.0384615384615\n'
p1297
aS'1297\t20.01.2016 0:20:07\t0.0384615384615\n'
p1298
aS'1298\t20.01.2016 0:30:07\t0.0384615384615\n'
p1299
aS'1299\t20.01.2016 0:40:07\t0.0384615384615\n'
p1300
aS'1300\t20.01.2016 0:50:07\t0.031847133758\n'
p1301
aS'1301\t20.01.2016 1:00:07\t0.0384615384615\n'
p1302
aS'1302\t20.01.2016 1:10:07\t0.0384615384615\n'
p1303
aS'1303\t20.01.2016 1:20:07\t0.035143769968\n'
p1304
aS'1304\t20.01.2016 1:30:22\t0.031847133758\n'
p1305
aS'1305\t20.01.2016 1:40:07\t0.0289389067524\n'
p1306
aS'1306\t20.01.2016 1:50:07\t0.0289389067524\n'
p1307
aS'1307\t20.01.2016 2:00:07\t0.025641025641\n'
p1308
aS'1308\t20.01.2016 2:10:07\t0.025641025641\n'
p1309
aS'1309\t20.01.2016 2:20:07\t0.025641025641\n'
p1310
aS'1310\t20.01.2016 2:30:07\t0.0223642172524\n'
p1311
aS'1311\t20.01.2016 2:40:07\t0.0192307692308\n'
p1312
aS'1312\t20.01.2016 2:50:07\t0.0225080385852\n'
p1313
aS'1313\t20.01.2016 3:00:07\t0.0193548387097\n'
p1314
aS'1314\t20.01.2016 3:10:07\t0.016077170418\n'
p1315
aS'1315\t20.01.2016 3:20:07\t0.0193548387097\n'
p1316
aS'1316\t20.01.2016 3:30:07\t0.0193548387097\n'
p1317
aS'1317\t20.01.2016 3:40:06\t0.016077170418\n'
p1318
aS'1318\t20.01.2016 3:50:07\t0.0193548387097\n'
p1319
aS'1319\t20.01.2016 4:00:07\t0.0159744408946\n'
p1320
aS'1320\t20.01.2016 4:10:06\t0.0191082802548\n'
p1321
aS'1321\t20.01.2016 4:20:06\t0.0159744408946\n'
p1322
aS'1322\t20.01.2016 4:30:06\t0.0127388535032\n'
p1323
aS'1323\t20.01.2016 4:40:06\t0.0225080385852\n'
p1324
aS'1324\t20.01.2016 4:50:06\t0.0225080385852\n'
p1325
aS'1325\t20.01.2016 5:00:06\t0.0225080385852\n'
p1326
aS'1326\t20.01.2016 5:10:06\t0.0192307692308\n'
p1327
aS'1327\t20.01.2016 5:20:06\t0.0192307692308\n'
p1328
aS'1328\t20.01.2016 5:30:06\t0.0192307692308\n'
p1329
aS'1329\t20.01.2016 5:40:06\t0.0193548387097\n'
p1330
aS'1330\t20.01.2016 5:50:06\t0.0225080385852\n'
p1331
aS'1331\t20.01.2016 6:00:06\t0.0192307692308\n'
p1332
aS'1332\t20.01.2016 6:10:06\t0.0192307692308\n'
p1333
aS'1333\t20.01.2016 6:20:22\t0.0159744408946\n'
p1334
aS'1334\t20.01.2016 6:30:06\t0.016077170418\n'
p1335
aS'1335\t20.01.2016 6:40:06\t0.016077170418\n'
p1336
aS'1336\t20.01.2016 6:50:06\t0.0192307692308\n'
p1337
aS'1337\t20.01.2016 7:00:06\t0.0192307692308\n'
p1338
aS'1338\t20.01.2016 7:10:06\t0.0192307692308\n'
p1339
aS'1339\t20.01.2016 7:20:06\t0.0193548387097\n'
p1340
aS'1340\t20.01.2016 7:30:06\t0.0192307692308\n'
p1341
aS'1341\t20.01.2016 7:40:06\t0.0193548387097\n'
p1342
aS'1342\t20.01.2016 7:50:06\t0.0193548387097\n'
p1343
aS'1343\t20.01.2016 8:00:06\t0.0192307692308\n'
p1344
aS'1344\t20.01.2016 8:10:06\t0.0193548387097\n'
p1345
aS'1345\t20.01.2016 8:20:06\t0.0225080385852\n'
p1346
aS'1346\t20.01.2016 8:30:06\t0.025641025641\n'
p1347
aS'1347\t20.01.2016 8:40:05\t0.0322580645161\n'
p1348
aS'1348\t20.01.2016 8:50:05\t0.0322580645161\n'
p1349
aS'1349\t20.01.2016 9:00:05\t0.0353697749196\n'
p1350
aS'1350\t20.01.2016 9:10:06\t0.035143769968\n'
p1351
aS'1351\t20.01.2016 9:20:06\t0.0353697749196\n'
p1352
aS'1352\t20.01.2016 9:30:06\t0.0384615384615\n'
p1353
aS'1353\t20.01.2016 9:40:06\t0.0384615384615\n'
p1354
aS'1354\t20.01.2016 9:50:06\t0.0384615384615\n'
p1355
aS'1355\t20.01.2016 10:00:06\t0.0384615384615\n'
p1356
aS'1356\t20.01.2016 10:10:06\t0.0418006430868\n'
p1357
aS'1357\t20.01.2016 10:20:06\t0.0387096774194\n'
p1358
aS'1358\t20.01.2016 10:30:05\t0.0418006430868\n'
p1359
aS'1359\t20.01.2016 10:40:06\t0.0322580645161\n'
p1360
aS'1360\t20.01.2016 10:50:05\t0.0384615384615\n'
p1361
aS'1361\t20.01.2016 11:01:06\t0.0384615384615\n'
p1362
aS'1362\t20.01.2016 11:10:05\t0.0384615384615\n'
p1363
aS'1363\t20.01.2016 11:20:05\t0.0384615384615\n'
p1364
aS'1364\t20.01.2016 11:30:05\t0.0353697749196\n'
p1365
aS'1365\t20.01.2016 11:41:06\t0.0353697749196\n'
p1366
aS'1366\t20.01.2016 11:50:05\t0.0387096774194\n'
p1367
aS'1367\t20.01.2016 12:00:05\t0.0387096774194\n'
p1368
aS'1368\t20.01.2016 12:10:05\t0.0418006430868\n'
p1369
aS'1369\t20.01.2016 12:21:05\t0.042071197411\n'
p1370
aS'1370\t20.01.2016 12:31:05\t0.048231511254\n'
p1371
aS'1371\t20.01.2016 12:41:05\t0.042071197411\n'
p1372
aS'1372\t20.01.2016 12:51:05\t0.048231511254\n'
p1373
aS'1373\t20.01.2016 13:01:05\t0.048231511254\n'
p1374
aS'1374\t20.01.2016 13:11:05\t0.048231511254\n'
p1375
aS'1375\t20.01.2016 13:21:05\t0.048231511254\n'
p1376
aS'1376\t20.01.2016 13:30:05\t0.048231511254\n'
p1377
aS'1377\t20.01.2016 13:40:05\t0.0543130990415\n'
p1378
aS'1378\t20.01.2016 13:50:05\t0.0543130990415\n'
p1379
aS'1379\t20.01.2016 14:00:05\t0.0543130990415\n'
p1380
aS'1380\t20.01.2016 14:11:05\t0.0576923076923\n'
p1381
aS'1381\t20.01.2016 14:21:05\t0.0576923076923\n'
p1382
aS'1382\t20.01.2016 14:31:05\t0.0576923076923\n'
p1383
aS'1383\t20.01.2016 14:41:05\t0.0607028753994\n'
p1384
aS'1384\t20.01.2016 14:50:05\t0.0576923076923\n'
p1385
aS'1385\t20.01.2016 15:00:05\t0.0576923076923\n'
p1386
aS'1386\t20.01.2016 15:10:05\t0.0607028753994\n'
p1387
aS'1387\t20.01.2016 15:21:05\t0.0641025641026\n'
p1388
aS'1388\t20.01.2016 15:30:05\t0.0641025641026\n'
p1389
aS'1389\t20.01.2016 15:41:05\t0.0641025641026\n'
p1390
aS'1390\t20.01.2016 15:50:05\t0.0641025641026\n'
p1391
aS'1391\t20.01.2016 16:00:22\t0.0675241157556\n'
p1392
aS'1392\t20.01.2016 16:11:05\t0.0670926517572\n'
p1393
aS'1393\t20.01.2016 16:20:04\t0.0670926517572\n'
p1394
aS'1394\t20.01.2016 16:30:04\t0.0670926517572\n'
p1395
aS'1395\t20.01.2016 16:40:04\t0.0670926517572\n'
p1396
aS'1396\t20.01.2016 16:51:04\t0.0675241157556\n'
p1397
aS'1397\t20.01.2016 17:01:04\t0.0705128205128\n'
p1398
aS'1398\t20.01.2016 17:11:04\t0.0705128205128\n'
p1399
aS'1399\t20.01.2016 17:20:04\t0.0709677419355\n'
p1400
aS'1400\t20.01.2016 17:31:04\t0.0769230769231\n'
p1401
aS'1401\t20.01.2016 17:41:04\t0.0769230769231\n'
p1402
aS'1402\t20.01.2016 17:50:04\t0.0769230769231\n'
p1403
aS'1403\t20.01.2016 18:01:04\t0.0769230769231\n'
p1404
aS'1404\t20.01.2016 18:11:04\t0.073482428115\n'
p1405
aS'1405\t20.01.2016 18:21:04\t0.073482428115\n'
p1406
aS'1406\t20.01.2016 18:31:04\t0.073482428115\n'
p1407
aS'1407\t20.01.2016 18:40:04\t0.073482428115\n'
p1408
aS'1408\t20.01.2016 18:50:04\t0.0675241157556\n'
p1409
aS'1409\t20.01.2016 19:01:04\t0.0675241157556\n'
p1410
aS'1410\t20.01.2016 19:10:04\t0.073482428115\n'
p1411
aS'1411\t20.01.2016 19:20:04\t0.073482428115\n'
p1412
aS'1412\t20.01.2016 19:30:04\t0.073482428115\n'
p1413
aS'1413\t20.01.2016 19:41:04\t0.073482428115\n'
p1414
aS'1414\t20.01.2016 19:50:04\t0.073482428115\n'
p1415
aS'1415\t20.01.2016 20:00:04\t0.0675241157556\n'
p1416
aS'1416\t20.01.2016 20:10:04\t0.0666666666667\n'
p1417
aS'1417\t20.01.2016 20:20:04\t0.0675241157556\n'
p1418
aS'1418\t20.01.2016 20:30:04\t0.0636942675159\n'
p1419
aS'1419\t20.01.2016 20:40:04\t0.0607028753994\n'
p1420
aS'1420\t20.01.2016 20:51:04\t0.0641025641026\n'
p1421
aS'1421\t20.01.2016 21:01:04\t0.0607028753994\n'
p1422
aS'1422\t20.01.2016 21:11:04\t0.0607028753994\n'
p1423
aS'1423\t20.01.2016 21:21:04\t0.0607028753994\n'
p1424
aS'1424\t20.01.2016 21:30:04\t0.0610932475884\n'
p1425
aS'1425\t20.01.2016 21:40:04\t0.0610932475884\n'
p1426
aS'1426\t20.01.2016 21:51:04\t0.0573248407643\n'
p1427
aS'1427\t20.01.2016 22:00:04\t0.0610932475884\n'
p1428
aS'1428\t20.01.2016 22:10:04\t0.0543130990415\n'
p1429
aS'1429\t20.01.2016 22:21:04\t0.0512820512821\n'
p1430
aS'1430\t20.01.2016 22:31:04\t0.0543130990415\n'
p1431
aS'1431\t20.01.2016 22:41:04\t0.0543130990415\n'
p1432
aS'1432\t20.01.2016 22:51:04\t0.0509554140127\n'
p1433
aS'1433\t20.01.2016 23:01:04\t0.047619047619\n'
p1434
aS'1434\t20.01.2016 23:11:04\t0.047619047619\n'
p1435
aS'1435\t20.01.2016 23:21:04\t0.0448717948718\n'
p1436
aS'1436\t20.01.2016 23:31:04\t0.0415335463259\n'
p1437
aS'1437\t20.01.2016 23:41:03\t0.0415335463259\n'
p1438
aS'1438\t20.01.2016 23:51:03\t0.0415335463259\n'
p1439
a.